	.text
	.syntax unified
	.eabi_attribute	67, "2.09"	@ Tag_conformance
	.cpu	cortex-a8
	.eabi_attribute	6, 10	@ Tag_CPU_arch
	.eabi_attribute	7, 65	@ Tag_CPU_arch_profile
	.eabi_attribute	8, 1	@ Tag_ARM_ISA_use
	.eabi_attribute	9, 2	@ Tag_THUMB_ISA_use
	.fpu	neon
	.eabi_attribute	17, 1	@ Tag_ABI_PCS_GOT_use
	.eabi_attribute	20, 2	@ Tag_ABI_FP_denormal
	.eabi_attribute	23, 1	@ Tag_ABI_FP_number_model
	.eabi_attribute	34, 1	@ Tag_CPU_unaligned_access
	.eabi_attribute	24, 1	@ Tag_ABI_align_needed
	.eabi_attribute	25, 1	@ Tag_ABI_align_preserved
	.eabi_attribute	28, 1	@ Tag_ABI_VFP_args
	.eabi_attribute	38, 1	@ Tag_ABI_FP_16bit_format
	.eabi_attribute	18, 4	@ Tag_ABI_PCS_wchar_t
	.eabi_attribute	26, 2	@ Tag_ABI_enum_size
	.eabi_attribute	14, 0	@ Tag_ABI_PCS_R9_use
	.eabi_attribute	68, 1	@ Tag_Virtualization_use
	.file	"/root/Bela/projects/Yinghao-final-2/build/render.bc"
	.file	1 "/usr/bin/../lib/gcc/arm-linux-gnueabihf/6.3.0/../../../../include/arm-linux-gnueabihf/c++/6.3.0/bits" "c++config.h"
	.file	2 "/usr/bin/../lib/gcc/arm-linux-gnueabihf/6.3.0/../../../../include/c++/6.3.0/bits" "stringfwd.h"
	.file	3 "/root/Bela/projects/Yinghao-final-2" "render.cpp"
	.file	4 "/usr/bin/../lib/gcc/arm-linux-gnueabihf/6.3.0/../../../../include/c++/6.3.0/bits" "alloc_traits.h"
	.file	5 "/usr/bin/../lib/gcc/arm-linux-gnueabihf/6.3.0/../../../../include/c++/6.3.0/ext" "new_allocator.h"
	.file	6 "/usr/bin/../lib/gcc/arm-linux-gnueabihf/6.3.0/../../../../include/arm-linux-gnueabihf/c++/6.3.0/bits" "c++allocator.h"
	.file	7 "/usr/bin/../lib/gcc/arm-linux-gnueabihf/6.3.0/../../../../include/c++/6.3.0/bits" "allocator.h"
	.file	8 "/usr/bin/../lib/gcc/arm-linux-gnueabihf/6.3.0/../../../../include/c++/6.3.0/ext" "alloc_traits.h"
	.file	9 "/usr/bin/../lib/gcc/arm-linux-gnueabihf/6.3.0/../../../../include/c++/6.3.0/bits" "stl_vector.h"
	.file	10 "/usr/bin/../lib/gcc/arm-linux-gnueabihf/6.3.0/../../../../include/c++/6.3.0" "type_traits"
	.file	11 "/root/Bela/projects/Yinghao-final-2" "MonoFilePlayer.h"
	.file	12 "./libraries/Gui" "Gui.h"
	.file	13 "/usr/bin/../lib/gcc/arm-linux-gnueabihf/6.3.0/../../../../include/c++/6.3.0/bits" "unique_ptr.h"
	.file	14 "/usr/bin/../lib/gcc/arm-linux-gnueabihf/6.3.0/../../../../include/c++/6.3.0" "tuple"
	.file	15 "/usr/bin/../lib/gcc/arm-linux-gnueabihf/6.3.0/../../../../include/c++/6.3.0/bits" "uses_allocator.h"
	.file	16 "/usr/bin/../lib/gcc/arm-linux-gnueabihf/6.3.0/../../../../include/c++/6.3.0/bits" "stl_function.h"
	.file	17 "/usr/bin/../lib/gcc/arm-linux-gnueabihf/6.3.0/../../../../include/c++/6.3.0" "functional"
	.file	18 "/usr/lib/llvm-3.9/bin/../lib/clang/3.9.1/include" "stddef.h"
	.file	19 "./libraries/GuiController" "GuiSlider.h"
	.file	20 "./include" "JSON.h"
	.file	21 "./libraries/GuiController" "GuiController.h"
	.file	22 "./libraries/Scope" "Scope.h"
	.file	23 "/usr/include/ne10" "NE10_types.h"
	.file	24 "/usr/bin/../lib/gcc/arm-linux-gnueabihf/6.3.0/../../../../include/c++/6.3.0/bits" "stl_tree.h"
	.file	25 "/usr/bin/../lib/gcc/arm-linux-gnueabihf/6.3.0/../../../../include/c++/6.3.0/bits" "stl_pair.h"
	.file	26 "/usr/bin/../lib/gcc/arm-linux-gnueabihf/6.3.0/../../../../include/c++/6.3.0/bits" "stl_map.h"
	.file	27 "/root/Bela/projects/Yinghao-final-2" "Wavetable.h"
	.file	28 "/usr/bin/../lib/gcc/arm-linux-gnueabihf/6.3.0/../../../../include/c++/6.3.0/ext" "concurrence.h"
	.file	29 "./include" "Bela.h"
	.file	30 "./include" "GPIOcontrol.h"
	.file	31 "/usr/bin/../lib/gcc/arm-linux-gnueabihf/6.3.0/../../../../include/c++/6.3.0/bits" "basic_string.h"
	.file	32 "/usr/bin/../lib/gcc/arm-linux-gnueabihf/6.3.0/../../../../include/c++/6.3.0/bits" "cpp_type_traits.h"
	.file	33 "/usr/bin/../lib/gcc/arm-linux-gnueabihf/6.3.0/../../../../include/c++/6.3.0/bits" "char_traits.h"
	.file	34 "/usr/bin/../lib/gcc/arm-linux-gnueabihf/6.3.0/../../../../include/c++/6.3.0/bits" "stl_iterator.h"
	.file	35 "/usr/bin/../lib/gcc/arm-linux-gnueabihf/6.3.0/../../../../include/c++/6.3.0/bits" "stl_iterator_base_types.h"
	.file	36 "/usr/bin/../lib/gcc/arm-linux-gnueabihf/6.3.0/../../../../include/c++/6.3.0/debug" "debug.h"
	.file	37 "/usr/bin/../lib/gcc/arm-linux-gnueabihf/6.3.0/../../../../include/c++/6.3.0/bits" "exception_ptr.h"
	.file	38 "/usr/include" "wchar.h"
	.file	39 "/usr/include" "libio.h"
	.file	40 "/usr/include/arm-linux-gnueabihf/bits" "types.h"
	.file	41 "/usr/include" "stdio.h"
	.file	42 "/usr/lib/llvm-3.9/bin/../lib/clang/3.9.1/include" "stdarg.h"
	.file	43 "/usr/include" "stdint.h"
	.file	44 "/usr/include" "locale.h"
	.file	45 "/usr/include" "ctype.h"
	.file	46 "/usr/include" "stdlib.h"
	.file	47 "/usr/include/arm-linux-gnueabihf/bits" "stdlib-float.h"
	.file	48 "/usr/include/arm-linux-gnueabihf/bits" "stdlib-bsearch.h"
	.file	49 "/usr/bin/../lib/gcc/arm-linux-gnueabihf/6.3.0/../../../../include/c++/6.3.0" "cstdlib"
	.file	50 "/usr/include" "_G_config.h"
	.file	51 "/usr/include/arm-linux-gnueabihf/bits" "stdio.h"
	.file	52 "/usr/include" "string.h"
	.file	53 "/usr/include/arm-linux-gnueabihf/bits" "math-finite.h"
	.file	54 "/usr/include/arm-linux-gnueabihf/bits" "mathcalls.h"
	.file	55 "/usr/include/arm-linux-gnueabihf/bits" "mathdef.h"
	.section	.text._ZN14MonoFilePlayerD2Ev,"axG",%progbits,_ZN14MonoFilePlayerD2Ev,comdat
	.weak	_ZN14MonoFilePlayerD2Ev
	.p2align	2
	.type	_ZN14MonoFilePlayerD2Ev,%function
_ZN14MonoFilePlayerD2Ev:                @ @_ZN14MonoFilePlayerD2Ev
.Lfunc_begin0:
	.loc	11 42 0                 @ /root/Bela/projects/Yinghao-final-2/MonoFilePlayer.h:42:0
	.fnstart
	.cfi_startproc
@ BB#0:
	.save	{r4, r10, r11, lr}
	push	{r4, r10, r11, lr}
.Ltmp0:
	.cfi_def_cfa_offset 16
.Ltmp1:
	.cfi_offset lr, -4
.Ltmp2:
	.cfi_offset r11, -8
.Ltmp3:
	.cfi_offset r10, -12
.Ltmp4:
	.cfi_offset r4, -16
	.setfp	r11, sp, #8
	add	r11, sp, #8
.Ltmp5:
	.cfi_def_cfa r11, 8
	@DEBUG_VALUE: ~MonoFilePlayer:this <- %R0
	mov	r4, r0
.Ltmp6:
	@DEBUG_VALUE: ~MonoFilePlayer:this <- %R4
	.loc	9 160 37 prologue_end   @ /usr/bin/../lib/gcc/arm-linux-gnueabihf/6.3.0/../../../../include/c++/6.3.0/bits/stl_vector.h:160:37
	ldr	r0, [r4]
.Ltmp7:
	@DEBUG_VALUE: _M_deallocate:__p <- %R0
	@DEBUG_VALUE: deallocate:__p <- %R0
	@DEBUG_VALUE: deallocate:__p <- %R0
	.loc	9 177 6                 @ /usr/bin/../lib/gcc/arm-linux-gnueabihf/6.3.0/../../../../include/c++/6.3.0/bits/stl_vector.h:177:6
	cmp	r0, #0
	beq	.LBB0_2
.Ltmp8:
@ BB#1:
	@DEBUG_VALUE: deallocate:__p <- %R0
	@DEBUG_VALUE: deallocate:__p <- %R0
	@DEBUG_VALUE: _M_deallocate:__p <- %R0
	@DEBUG_VALUE: ~MonoFilePlayer:this <- %R4
	.loc	5 110 9                 @ /usr/bin/../lib/gcc/arm-linux-gnueabihf/6.3.0/../../../../include/c++/6.3.0/ext/new_allocator.h:110:9
	bl	_ZdlPv
.Ltmp9:
.LBB0_2:                                @ %_ZNSt6vectorIfSaIfEED2Ev.exit
	@DEBUG_VALUE: ~MonoFilePlayer:this <- %R4
	.loc	11 42 21                @ /root/Bela/projects/Yinghao-final-2/MonoFilePlayer.h:42:21
	mov	r0, r4
	pop	{r4, r10, r11, pc}
.Ltmp10:
.Lfunc_end0:
	.size	_ZN14MonoFilePlayerD2Ev, .Lfunc_end0-_ZN14MonoFilePlayerD2Ev
	.cfi_endproc
	.fnend

	.section	.text._ZNSt6vectorIfSaIfEED2Ev,"axG",%progbits,_ZNSt6vectorIfSaIfEED2Ev,comdat
	.weak	_ZNSt6vectorIfSaIfEED2Ev
	.p2align	2
	.type	_ZNSt6vectorIfSaIfEED2Ev,%function
_ZNSt6vectorIfSaIfEED2Ev:               @ @_ZNSt6vectorIfSaIfEED2Ev
.Lfunc_begin1:
	.loc	9 426 0                 @ /usr/bin/../lib/gcc/arm-linux-gnueabihf/6.3.0/../../../../include/c++/6.3.0/bits/stl_vector.h:426:0
	.fnstart
	.cfi_startproc
@ BB#0:
	.save	{r4, r10, r11, lr}
	push	{r4, r10, r11, lr}
.Ltmp11:
	.cfi_def_cfa_offset 16
.Ltmp12:
	.cfi_offset lr, -4
.Ltmp13:
	.cfi_offset r11, -8
.Ltmp14:
	.cfi_offset r10, -12
.Ltmp15:
	.cfi_offset r4, -16
	.setfp	r11, sp, #8
	add	r11, sp, #8
.Ltmp16:
	.cfi_def_cfa r11, 8
	@DEBUG_VALUE: ~vector:this <- %R0
	mov	r4, r0
.Ltmp17:
	@DEBUG_VALUE: ~vector:this <- %R4
	.loc	9 160 37 prologue_end   @ /usr/bin/../lib/gcc/arm-linux-gnueabihf/6.3.0/../../../../include/c++/6.3.0/bits/stl_vector.h:160:37
	ldr	r0, [r4]
.Ltmp18:
	@DEBUG_VALUE: _M_deallocate:__p <- %R0
	@DEBUG_VALUE: deallocate:__p <- %R0
	@DEBUG_VALUE: deallocate:__p <- %R0
	.loc	9 177 6                 @ /usr/bin/../lib/gcc/arm-linux-gnueabihf/6.3.0/../../../../include/c++/6.3.0/bits/stl_vector.h:177:6
	cmp	r0, #0
	beq	.LBB1_2
.Ltmp19:
@ BB#1:
	@DEBUG_VALUE: deallocate:__p <- %R0
	@DEBUG_VALUE: deallocate:__p <- %R0
	@DEBUG_VALUE: _M_deallocate:__p <- %R0
	@DEBUG_VALUE: ~vector:this <- %R4
	.loc	5 110 9                 @ /usr/bin/../lib/gcc/arm-linux-gnueabihf/6.3.0/../../../../include/c++/6.3.0/ext/new_allocator.h:110:9
	bl	_ZdlPv
.Ltmp20:
.LBB1_2:                                @ %_ZNSt12_Vector_baseIfSaIfEED2Ev.exit
	@DEBUG_VALUE: ~vector:this <- %R4
	.loc	9 427 33 discriminator 1 @ /usr/bin/../lib/gcc/arm-linux-gnueabihf/6.3.0/../../../../include/c++/6.3.0/bits/stl_vector.h:427:33
	mov	r0, r4
	pop	{r4, r10, r11, pc}
.Ltmp21:
.Lfunc_end1:
	.size	_ZNSt6vectorIfSaIfEED2Ev, .Lfunc_end1-_ZNSt6vectorIfSaIfEED2Ev
	.cfi_endproc
	.fnend

	.section	.text._ZN9WavetableD2Ev,"axG",%progbits,_ZN9WavetableD2Ev,comdat
	.weak	_ZN9WavetableD2Ev
	.p2align	2
	.type	_ZN9WavetableD2Ev,%function
_ZN9WavetableD2Ev:                      @ @_ZN9WavetableD2Ev
.Lfunc_begin2:
	.loc	27 32 0                 @ /root/Bela/projects/Yinghao-final-2/Wavetable.h:32:0
	.fnstart
	.cfi_startproc
@ BB#0:
	.save	{r4, r10, r11, lr}
	push	{r4, r10, r11, lr}
.Ltmp22:
	.cfi_def_cfa_offset 16
.Ltmp23:
	.cfi_offset lr, -4
.Ltmp24:
	.cfi_offset r11, -8
.Ltmp25:
	.cfi_offset r10, -12
.Ltmp26:
	.cfi_offset r4, -16
	.setfp	r11, sp, #8
	add	r11, sp, #8
.Ltmp27:
	.cfi_def_cfa r11, 8
	@DEBUG_VALUE: ~Wavetable:this <- %R0
	mov	r4, r0
.Ltmp28:
	@DEBUG_VALUE: ~Wavetable:this <- %R4
	.loc	9 160 37 prologue_end   @ /usr/bin/../lib/gcc/arm-linux-gnueabihf/6.3.0/../../../../include/c++/6.3.0/bits/stl_vector.h:160:37
	ldr	r0, [r4]
.Ltmp29:
	@DEBUG_VALUE: _M_deallocate:__p <- %R0
	@DEBUG_VALUE: deallocate:__p <- %R0
	@DEBUG_VALUE: deallocate:__p <- %R0
	.loc	9 177 6                 @ /usr/bin/../lib/gcc/arm-linux-gnueabihf/6.3.0/../../../../include/c++/6.3.0/bits/stl_vector.h:177:6
	cmp	r0, #0
	beq	.LBB2_2
.Ltmp30:
@ BB#1:
	@DEBUG_VALUE: deallocate:__p <- %R0
	@DEBUG_VALUE: deallocate:__p <- %R0
	@DEBUG_VALUE: _M_deallocate:__p <- %R0
	@DEBUG_VALUE: ~Wavetable:this <- %R4
	.loc	5 110 9                 @ /usr/bin/../lib/gcc/arm-linux-gnueabihf/6.3.0/../../../../include/c++/6.3.0/ext/new_allocator.h:110:9
	bl	_ZdlPv
.Ltmp31:
.LBB2_2:                                @ %_ZNSt6vectorIfSaIfEED2Ev.exit
	@DEBUG_VALUE: ~Wavetable:this <- %R4
	.loc	27 32 16                @ /root/Bela/projects/Yinghao-final-2/Wavetable.h:32:16
	mov	r0, r4
	pop	{r4, r10, r11, pc}
.Ltmp32:
.Lfunc_end2:
	.size	_ZN9WavetableD2Ev, .Lfunc_end2-_ZN9WavetableD2Ev
	.cfi_endproc
	.fnend

	.text
	.globl	setup
	.p2align	4
	.type	setup,%function
setup:                                  @ @setup
.Lfunc_begin3:
	.loc	3 59 0                  @ /root/Bela/projects/Yinghao-final-2/render.cpp:59:0
	.fnstart
	.cfi_startproc
@ BB#0:
	.save	{r4, r5, r6, r7, r8, r9, r10, r11, lr}
	push	{r4, r5, r6, r7, r8, r9, r10, r11, lr}
.Ltmp101:
	.cfi_def_cfa_offset 36
.Ltmp102:
	.cfi_offset lr, -4
.Ltmp103:
	.cfi_offset r11, -8
.Ltmp104:
	.cfi_offset r10, -12
.Ltmp105:
	.cfi_offset r9, -16
.Ltmp106:
	.cfi_offset r8, -20
.Ltmp107:
	.cfi_offset r7, -24
.Ltmp108:
	.cfi_offset r6, -28
.Ltmp109:
	.cfi_offset r5, -32
.Ltmp110:
	.cfi_offset r4, -36
	.setfp	r11, sp, #28
	add	r11, sp, #28
.Ltmp111:
	.cfi_def_cfa r11, 8
	.pad	#4
	sub	sp, sp, #4
	.vsave	{d8, d9, d10, d11, d12, d13, d14, d15}
	vpush	{d8, d9, d10, d11, d12, d13, d14, d15}
.Ltmp112:
	.cfi_offset d15, -48
.Ltmp113:
	.cfi_offset d14, -56
.Ltmp114:
	.cfi_offset d13, -64
.Ltmp115:
	.cfi_offset d12, -72
.Ltmp116:
	.cfi_offset d11, -80
.Ltmp117:
	.cfi_offset d10, -88
.Ltmp118:
	.cfi_offset d9, -96
.Ltmp119:
	.cfi_offset d8, -104
	.pad	#416
	sub	sp, sp, #416
	@DEBUG_VALUE: setup:context <- %R0
	@DEBUG_VALUE: setup:userData <- %R1
.Ltmp120:
	.loc	3 61 14 prologue_end    @ /root/Bela/projects/Yinghao-final-2/render.cpp:61:14
	movw	r10, :lower16:.L_MergedGlobals.4
	movw	r8, :lower16:gPlayer
	movt	r10, :upper16:.L_MergedGlobals.4
	add	r1, r10, #36
.Ltmp121:
	movt	r8, :upper16:gPlayer
	mov	r4, r0
.Ltmp122:
	@DEBUG_VALUE: setup:context <- %R4
	mov	r0, r8
	mov	r2, #1
	mov	r3, #1
	bl	_ZN14MonoFilePlayer5setupERKNSt7__cxx1112basic_stringIcSt11char_traitsIcESaIcEEEbb
.Ltmp123:
	.loc	3 61 5 is_stmt 0        @ /root/Bela/projects/Yinghao-final-2/render.cpp:61:5
	cmp	r0, #0
	beq	.LBB3_3
.Ltmp124:
@ BB#1:
	@DEBUG_VALUE: setup:context <- %R4
	.loc	3 66 42 is_stmt 1       @ /root/Bela/projects/Yinghao-final-2/render.cpp:66:42
	vldr	s0, [r4, #32]
.Ltmp125:
	.loc	9 656 40                @ /usr/bin/../lib/gcc/arm-linux-gnueabihf/6.3.0/../../../../include/c++/6.3.0/bits/stl_vector.h:656:40
	movw	r6, :lower16:.L_MergedGlobals
.Ltmp126:
	.loc	3 66 31                 @ /root/Bela/projects/Yinghao-final-2/render.cpp:66:31
	vldr	d8, .LCPI3_6
.Ltmp127:
	.loc	9 656 40                @ /usr/bin/../lib/gcc/arm-linux-gnueabihf/6.3.0/../../../../include/c++/6.3.0/bits/stl_vector.h:656:40
	movt	r6, :upper16:.L_MergedGlobals
.Ltmp128:
	.loc	3 66 33                 @ /root/Bela/projects/Yinghao-final-2/render.cpp:66:33
	vcvt.f64.f32	d16, s0
	.loc	3 66 31 is_stmt 0       @ /root/Bela/projects/Yinghao-final-2/render.cpp:66:31
	vmul.f64	d16, d16, d8
	.loc	3 66 27                 @ /root/Bela/projects/Yinghao-final-2/render.cpp:66:27
	vcvt.u32.f64	s2, d16
.Ltmp129:
	.loc	9 656 66 is_stmt 1      @ /usr/bin/../lib/gcc/arm-linux-gnueabihf/6.3.0/../../../../include/c++/6.3.0/bits/stl_vector.h:656:66
	ldrd	r2, r3, [r6, #40]
	.loc	9 656 50 is_stmt 0      @ /usr/bin/../lib/gcc/arm-linux-gnueabihf/6.3.0/../../../../include/c++/6.3.0/bits/stl_vector.h:656:50
	sub	r3, r3, r2
	asr	r1, r3, #2
.Ltmp130:
	.loc	3 66 27 is_stmt 1       @ /root/Bela/projects/Yinghao-final-2/render.cpp:66:27
	vmov	r0, s2
.Ltmp131:
	@DEBUG_VALUE: resize:__new_size <- %R0
	.loc	9 676 6                 @ /usr/bin/../lib/gcc/arm-linux-gnueabihf/6.3.0/../../../../include/c++/6.3.0/bits/stl_vector.h:676:6
	cmp	r0, r3, asr #2
	bls	.LBB3_4
.Ltmp132:
@ BB#2:
	@DEBUG_VALUE: resize:__new_size <- %R0
	@DEBUG_VALUE: setup:context <- %R4
	.loc	9 677 33                @ /usr/bin/../lib/gcc/arm-linux-gnueabihf/6.3.0/../../../../include/c++/6.3.0/bits/stl_vector.h:677:33
	sub	r1, r0, r1
	.loc	9 677 4 is_stmt 0 discriminator 1 @ /usr/bin/../lib/gcc/arm-linux-gnueabihf/6.3.0/../../../../include/c++/6.3.0/bits/stl_vector.h:677:4
	add	r0, r6, #40
.Ltmp133:
	@DEBUG_VALUE: _M_erase_at_end:this <- %R0
	bl	_ZNSt6vectorIfSaIfEE17_M_default_appendEj
.Ltmp134:
	.loc	3 67 43 is_stmt 1       @ /root/Bela/projects/Yinghao-final-2/render.cpp:67:43
	vldr	s0, [r4, #32]
	b	.LBB3_5
.Ltmp135:
.LBB3_3:
	@DEBUG_VALUE: setup:context <- %R4
	.loc	31 136 28               @ /usr/bin/../lib/gcc/arm-linux-gnueabihf/6.3.0/../../../../include/c++/6.3.0/bits/basic_string.h:136:28
	ldr	r1, [r10, #36]
.Ltmp136:
	.loc	3 62 6 discriminator 1  @ /root/Bela/projects/Yinghao-final-2/render.cpp:62:6
	movw	r0, :lower16:.L.str.29
	movt	r0, :upper16:.L.str.29
	bl	rt_printf
	mov	r0, #0
	b	.LBB3_134
.Ltmp137:
.LBB3_4:
	@DEBUG_VALUE: resize:__new_size <- %R0
	@DEBUG_VALUE: setup:context <- %R4
	.loc	9 678 11                @ /usr/bin/../lib/gcc/arm-linux-gnueabihf/6.3.0/../../../../include/c++/6.3.0/bits/stl_vector.h:678:11
	cmp	r0, r1
.Ltmp138:
	.loc	9 679 43                @ /usr/bin/../lib/gcc/arm-linux-gnueabihf/6.3.0/../../../../include/c++/6.3.0/bits/stl_vector.h:679:43
	addlo	r0, r2, r0, lsl #2
.Ltmp139:
	@DEBUG_VALUE: _M_erase_at_end:__pos <- %R0
	.loc	9 1437 26               @ /usr/bin/../lib/gcc/arm-linux-gnueabihf/6.3.0/../../../../include/c++/6.3.0/bits/stl_vector.h:1437:26
	strlo	r0, [r6, #44]
.Ltmp140:
.LBB3_5:                                @ %_ZNSt6vectorIfSaIfEE6resizeEj.exit
	@DEBUG_VALUE: setup:context <- %R4
	.loc	3 67 34                 @ /root/Bela/projects/Yinghao-final-2/render.cpp:67:34
	vcvt.f64.f32	d16, s0
	.loc	3 67 32 is_stmt 0       @ /root/Bela/projects/Yinghao-final-2/render.cpp:67:32
	vmul.f64	d16, d16, d8
	.loc	3 67 28                 @ /root/Bela/projects/Yinghao-final-2/render.cpp:67:28
	vcvt.u32.f64	s2, d16
.Ltmp141:
	.loc	9 656 66 is_stmt 1      @ /usr/bin/../lib/gcc/arm-linux-gnueabihf/6.3.0/../../../../include/c++/6.3.0/bits/stl_vector.h:656:66
	ldrd	r2, r3, [r6, #64]
	.loc	9 656 50 is_stmt 0      @ /usr/bin/../lib/gcc/arm-linux-gnueabihf/6.3.0/../../../../include/c++/6.3.0/bits/stl_vector.h:656:50
	sub	r3, r3, r2
	asr	r1, r3, #2
.Ltmp142:
	.loc	3 67 28 is_stmt 1       @ /root/Bela/projects/Yinghao-final-2/render.cpp:67:28
	vmov	r0, s2
.Ltmp143:
	@DEBUG_VALUE: resize:__new_size <- %R0
	.loc	9 676 6                 @ /usr/bin/../lib/gcc/arm-linux-gnueabihf/6.3.0/../../../../include/c++/6.3.0/bits/stl_vector.h:676:6
	cmp	r0, r3, asr #2
	bls	.LBB3_7
.Ltmp144:
@ BB#6:
	@DEBUG_VALUE: resize:__new_size <- %R0
	@DEBUG_VALUE: setup:context <- %R4
	.loc	9 677 33                @ /usr/bin/../lib/gcc/arm-linux-gnueabihf/6.3.0/../../../../include/c++/6.3.0/bits/stl_vector.h:677:33
	sub	r1, r0, r1
	.loc	9 677 4 is_stmt 0 discriminator 1 @ /usr/bin/../lib/gcc/arm-linux-gnueabihf/6.3.0/../../../../include/c++/6.3.0/bits/stl_vector.h:677:4
	add	r0, r6, #64
.Ltmp145:
	@DEBUG_VALUE: _M_erase_at_end:this <- %R0
	bl	_ZNSt6vectorIfSaIfEE17_M_default_appendEj
.Ltmp146:
	.loc	3 68 44 is_stmt 1       @ /root/Bela/projects/Yinghao-final-2/render.cpp:68:44
	vldr	s0, [r4, #32]
	b	.LBB3_8
.Ltmp147:
.LBB3_7:
	@DEBUG_VALUE: resize:__new_size <- %R0
	@DEBUG_VALUE: setup:context <- %R4
	.loc	9 678 11                @ /usr/bin/../lib/gcc/arm-linux-gnueabihf/6.3.0/../../../../include/c++/6.3.0/bits/stl_vector.h:678:11
	cmp	r0, r1
.Ltmp148:
	.loc	9 679 43                @ /usr/bin/../lib/gcc/arm-linux-gnueabihf/6.3.0/../../../../include/c++/6.3.0/bits/stl_vector.h:679:43
	addlo	r0, r2, r0, lsl #2
.Ltmp149:
	@DEBUG_VALUE: _M_erase_at_end:__pos <- %R0
	.loc	9 1437 26               @ /usr/bin/../lib/gcc/arm-linux-gnueabihf/6.3.0/../../../../include/c++/6.3.0/bits/stl_vector.h:1437:26
	strlo	r0, [r6, #68]
.Ltmp150:
.LBB3_8:                                @ %_ZNSt6vectorIfSaIfEE6resizeEj.exit53
	@DEBUG_VALUE: setup:context <- %R4
	.loc	3 68 35                 @ /root/Bela/projects/Yinghao-final-2/render.cpp:68:35
	vcvt.f64.f32	d16, s0
	.loc	3 68 33 is_stmt 0       @ /root/Bela/projects/Yinghao-final-2/render.cpp:68:33
	vmul.f64	d16, d16, d8
	.loc	3 68 29                 @ /root/Bela/projects/Yinghao-final-2/render.cpp:68:29
	vcvt.u32.f64	s2, d16
.Ltmp151:
	.loc	9 656 66 is_stmt 1      @ /usr/bin/../lib/gcc/arm-linux-gnueabihf/6.3.0/../../../../include/c++/6.3.0/bits/stl_vector.h:656:66
	ldr	r0, [r6, #76]
	.loc	9 656 40 is_stmt 0      @ /usr/bin/../lib/gcc/arm-linux-gnueabihf/6.3.0/../../../../include/c++/6.3.0/bits/stl_vector.h:656:40
	ldr	r2, [r6, #80]
	.loc	9 656 50                @ /usr/bin/../lib/gcc/arm-linux-gnueabihf/6.3.0/../../../../include/c++/6.3.0/bits/stl_vector.h:656:50
	sub	r3, r2, r0
	asr	r2, r3, #2
.Ltmp152:
	.loc	3 68 29 is_stmt 1       @ /root/Bela/projects/Yinghao-final-2/render.cpp:68:29
	vmov	r1, s2
.Ltmp153:
	@DEBUG_VALUE: resize:__new_size <- %R1
	.loc	9 676 6                 @ /usr/bin/../lib/gcc/arm-linux-gnueabihf/6.3.0/../../../../include/c++/6.3.0/bits/stl_vector.h:676:6
	cmp	r1, r3, asr #2
	bls	.LBB3_10
.Ltmp154:
@ BB#9:
	@DEBUG_VALUE: resize:__new_size <- %R1
	@DEBUG_VALUE: setup:context <- %R4
	.loc	9 677 33                @ /usr/bin/../lib/gcc/arm-linux-gnueabihf/6.3.0/../../../../include/c++/6.3.0/bits/stl_vector.h:677:33
	sub	r1, r1, r2
.Ltmp155:
	.loc	9 677 4 is_stmt 0 discriminator 1 @ /usr/bin/../lib/gcc/arm-linux-gnueabihf/6.3.0/../../../../include/c++/6.3.0/bits/stl_vector.h:677:4
	add	r0, r6, #76
.Ltmp156:
	@DEBUG_VALUE: _M_erase_at_end:this <- %R0
	bl	_ZNSt6vectorIfSaIfEE17_M_default_appendEj
.Ltmp157:
	.loc	3 69 43 is_stmt 1       @ /root/Bela/projects/Yinghao-final-2/render.cpp:69:43
	vldr	s0, [r4, #32]
	b	.LBB3_11
.Ltmp158:
.LBB3_10:
	@DEBUG_VALUE: resize:__new_size <- %R1
	@DEBUG_VALUE: setup:context <- %R4
	.loc	9 678 11                @ /usr/bin/../lib/gcc/arm-linux-gnueabihf/6.3.0/../../../../include/c++/6.3.0/bits/stl_vector.h:678:11
	cmp	r1, r2
.Ltmp159:
	.loc	9 679 43                @ /usr/bin/../lib/gcc/arm-linux-gnueabihf/6.3.0/../../../../include/c++/6.3.0/bits/stl_vector.h:679:43
	addlo	r0, r0, r1, lsl #2
.Ltmp160:
	@DEBUG_VALUE: _M_erase_at_end:__pos <- %R0
	.loc	9 1437 26               @ /usr/bin/../lib/gcc/arm-linux-gnueabihf/6.3.0/../../../../include/c++/6.3.0/bits/stl_vector.h:1437:26
	strlo	r0, [r6, #80]
.Ltmp161:
.LBB3_11:                               @ %_ZNSt6vectorIfSaIfEE6resizeEj.exit54
	@DEBUG_VALUE: setup:context <- %R4
	.loc	3 69 34                 @ /root/Bela/projects/Yinghao-final-2/render.cpp:69:34
	vcvt.f64.f32	d16, s0
	.loc	3 69 32 is_stmt 0       @ /root/Bela/projects/Yinghao-final-2/render.cpp:69:32
	vmul.f64	d16, d16, d8
	.loc	3 69 28                 @ /root/Bela/projects/Yinghao-final-2/render.cpp:69:28
	vcvt.u32.f64	s2, d16
.Ltmp162:
	.loc	9 656 66 is_stmt 1      @ /usr/bin/../lib/gcc/arm-linux-gnueabihf/6.3.0/../../../../include/c++/6.3.0/bits/stl_vector.h:656:66
	ldrd	r2, r3, [r6, #88]
	.loc	9 656 50 is_stmt 0      @ /usr/bin/../lib/gcc/arm-linux-gnueabihf/6.3.0/../../../../include/c++/6.3.0/bits/stl_vector.h:656:50
	sub	r3, r3, r2
	asr	r1, r3, #2
.Ltmp163:
	.loc	3 69 28 is_stmt 1       @ /root/Bela/projects/Yinghao-final-2/render.cpp:69:28
	vmov	r0, s2
.Ltmp164:
	@DEBUG_VALUE: resize:__new_size <- %R0
	.loc	9 676 6                 @ /usr/bin/../lib/gcc/arm-linux-gnueabihf/6.3.0/../../../../include/c++/6.3.0/bits/stl_vector.h:676:6
	cmp	r0, r3, asr #2
	bls	.LBB3_13
.Ltmp165:
@ BB#12:
	@DEBUG_VALUE: resize:__new_size <- %R0
	@DEBUG_VALUE: setup:context <- %R4
	.loc	9 677 33                @ /usr/bin/../lib/gcc/arm-linux-gnueabihf/6.3.0/../../../../include/c++/6.3.0/bits/stl_vector.h:677:33
	sub	r1, r0, r1
	.loc	9 677 4 is_stmt 0 discriminator 1 @ /usr/bin/../lib/gcc/arm-linux-gnueabihf/6.3.0/../../../../include/c++/6.3.0/bits/stl_vector.h:677:4
	add	r0, r6, #88
.Ltmp166:
	@DEBUG_VALUE: _M_erase_at_end:this <- %R0
	bl	_ZNSt6vectorIfSaIfEE17_M_default_appendEj
.Ltmp167:
	.loc	3 70 43 is_stmt 1       @ /root/Bela/projects/Yinghao-final-2/render.cpp:70:43
	vldr	s0, [r4, #32]
	b	.LBB3_14
.Ltmp168:
.LBB3_13:
	@DEBUG_VALUE: resize:__new_size <- %R0
	@DEBUG_VALUE: setup:context <- %R4
	.loc	9 678 11                @ /usr/bin/../lib/gcc/arm-linux-gnueabihf/6.3.0/../../../../include/c++/6.3.0/bits/stl_vector.h:678:11
	cmp	r0, r1
.Ltmp169:
	.loc	9 679 43                @ /usr/bin/../lib/gcc/arm-linux-gnueabihf/6.3.0/../../../../include/c++/6.3.0/bits/stl_vector.h:679:43
	addlo	r0, r2, r0, lsl #2
.Ltmp170:
	@DEBUG_VALUE: _M_erase_at_end:__pos <- %R0
	.loc	9 1437 26               @ /usr/bin/../lib/gcc/arm-linux-gnueabihf/6.3.0/../../../../include/c++/6.3.0/bits/stl_vector.h:1437:26
	strlo	r0, [r6, #92]
.Ltmp171:
.LBB3_14:                               @ %_ZNSt6vectorIfSaIfEE6resizeEj.exit55
	@DEBUG_VALUE: setup:context <- %R4
	.loc	3 70 34                 @ /root/Bela/projects/Yinghao-final-2/render.cpp:70:34
	vcvt.f64.f32	d16, s0
	.loc	3 70 32 is_stmt 0       @ /root/Bela/projects/Yinghao-final-2/render.cpp:70:32
	vmul.f64	d16, d16, d8
	.loc	3 70 28                 @ /root/Bela/projects/Yinghao-final-2/render.cpp:70:28
	vcvt.u32.f64	s2, d16
.Ltmp172:
	.loc	9 656 66 is_stmt 1      @ /usr/bin/../lib/gcc/arm-linux-gnueabihf/6.3.0/../../../../include/c++/6.3.0/bits/stl_vector.h:656:66
	ldr	r0, [r6, #52]
	.loc	9 656 40 is_stmt 0      @ /usr/bin/../lib/gcc/arm-linux-gnueabihf/6.3.0/../../../../include/c++/6.3.0/bits/stl_vector.h:656:40
	ldr	r2, [r6, #56]
	.loc	9 656 50                @ /usr/bin/../lib/gcc/arm-linux-gnueabihf/6.3.0/../../../../include/c++/6.3.0/bits/stl_vector.h:656:50
	sub	r3, r2, r0
	asr	r2, r3, #2
.Ltmp173:
	.loc	3 70 28 is_stmt 1       @ /root/Bela/projects/Yinghao-final-2/render.cpp:70:28
	vmov	r1, s2
.Ltmp174:
	@DEBUG_VALUE: resize:__new_size <- %R1
	.loc	9 676 6                 @ /usr/bin/../lib/gcc/arm-linux-gnueabihf/6.3.0/../../../../include/c++/6.3.0/bits/stl_vector.h:676:6
	cmp	r1, r3, asr #2
	bls	.LBB3_16
.Ltmp175:
@ BB#15:
	@DEBUG_VALUE: resize:__new_size <- %R1
	@DEBUG_VALUE: setup:context <- %R4
	.loc	9 677 33                @ /usr/bin/../lib/gcc/arm-linux-gnueabihf/6.3.0/../../../../include/c++/6.3.0/bits/stl_vector.h:677:33
	sub	r1, r1, r2
.Ltmp176:
	.loc	9 677 4 is_stmt 0 discriminator 1 @ /usr/bin/../lib/gcc/arm-linux-gnueabihf/6.3.0/../../../../include/c++/6.3.0/bits/stl_vector.h:677:4
	add	r0, r6, #52
.Ltmp177:
	@DEBUG_VALUE: _M_erase_at_end:this <- %R0
	bl	_ZNSt6vectorIfSaIfEE17_M_default_appendEj
.Ltmp178:
	.loc	3 71 36 is_stmt 1       @ /root/Bela/projects/Yinghao-final-2/render.cpp:71:36
	vldr	s0, [r4, #32]
	b	.LBB3_17
.Ltmp179:
.LBB3_16:
	@DEBUG_VALUE: resize:__new_size <- %R1
	@DEBUG_VALUE: setup:context <- %R4
	.loc	9 678 11                @ /usr/bin/../lib/gcc/arm-linux-gnueabihf/6.3.0/../../../../include/c++/6.3.0/bits/stl_vector.h:678:11
	cmp	r1, r2
.Ltmp180:
	.loc	9 679 43                @ /usr/bin/../lib/gcc/arm-linux-gnueabihf/6.3.0/../../../../include/c++/6.3.0/bits/stl_vector.h:679:43
	addlo	r0, r0, r1, lsl #2
.Ltmp181:
	@DEBUG_VALUE: _M_erase_at_end:__pos <- %R0
	.loc	9 1437 26               @ /usr/bin/../lib/gcc/arm-linux-gnueabihf/6.3.0/../../../../include/c++/6.3.0/bits/stl_vector.h:1437:26
	strlo	r0, [r6, #56]
.Ltmp182:
.LBB3_17:                               @ %_ZNSt6vectorIfSaIfEE6resizeEj.exit56
	@DEBUG_VALUE: setup:context <- %R4
	.loc	3 71 27                 @ /root/Bela/projects/Yinghao-final-2/render.cpp:71:27
	vcvt.f64.f32	d16, s0
	.loc	3 71 25 is_stmt 0       @ /root/Bela/projects/Yinghao-final-2/render.cpp:71:25
	vmul.f64	d16, d16, d8
	.loc	3 71 21                 @ /root/Bela/projects/Yinghao-final-2/render.cpp:71:21
	vcvt.u32.f64	s2, d16
.Ltmp183:
	.loc	9 656 66 is_stmt 1      @ /usr/bin/../lib/gcc/arm-linux-gnueabihf/6.3.0/../../../../include/c++/6.3.0/bits/stl_vector.h:656:66
	ldr	r0, [r6, #100]
	.loc	9 656 40 is_stmt 0      @ /usr/bin/../lib/gcc/arm-linux-gnueabihf/6.3.0/../../../../include/c++/6.3.0/bits/stl_vector.h:656:40
	ldr	r2, [r6, #104]
	.loc	9 656 50                @ /usr/bin/../lib/gcc/arm-linux-gnueabihf/6.3.0/../../../../include/c++/6.3.0/bits/stl_vector.h:656:50
	sub	r3, r2, r0
	asr	r2, r3, #2
.Ltmp184:
	.loc	3 71 21 is_stmt 1       @ /root/Bela/projects/Yinghao-final-2/render.cpp:71:21
	vmov	r1, s2
.Ltmp185:
	@DEBUG_VALUE: resize:__new_size <- %R1
	.loc	9 676 6                 @ /usr/bin/../lib/gcc/arm-linux-gnueabihf/6.3.0/../../../../include/c++/6.3.0/bits/stl_vector.h:676:6
	cmp	r1, r3, asr #2
	bls	.LBB3_19
.Ltmp186:
@ BB#18:
	@DEBUG_VALUE: resize:__new_size <- %R1
	@DEBUG_VALUE: setup:context <- %R4
	.loc	9 677 33                @ /usr/bin/../lib/gcc/arm-linux-gnueabihf/6.3.0/../../../../include/c++/6.3.0/bits/stl_vector.h:677:33
	sub	r1, r1, r2
.Ltmp187:
	.loc	9 677 4 is_stmt 0 discriminator 1 @ /usr/bin/../lib/gcc/arm-linux-gnueabihf/6.3.0/../../../../include/c++/6.3.0/bits/stl_vector.h:677:4
	add	r0, r6, #100
.Ltmp188:
	@DEBUG_VALUE: _M_erase_at_end:this <- %R0
	bl	_ZNSt6vectorIfSaIfEE17_M_default_appendEj
.Ltmp189:
	.loc	3 72 37 is_stmt 1       @ /root/Bela/projects/Yinghao-final-2/render.cpp:72:37
	vldr	s0, [r4, #32]
	b	.LBB3_20
.Ltmp190:
.LBB3_19:
	@DEBUG_VALUE: resize:__new_size <- %R1
	@DEBUG_VALUE: setup:context <- %R4
	.loc	9 678 11                @ /usr/bin/../lib/gcc/arm-linux-gnueabihf/6.3.0/../../../../include/c++/6.3.0/bits/stl_vector.h:678:11
	cmp	r1, r2
.Ltmp191:
	.loc	9 679 43                @ /usr/bin/../lib/gcc/arm-linux-gnueabihf/6.3.0/../../../../include/c++/6.3.0/bits/stl_vector.h:679:43
	addlo	r0, r0, r1, lsl #2
.Ltmp192:
	@DEBUG_VALUE: _M_erase_at_end:__pos <- %R0
	.loc	9 1437 26               @ /usr/bin/../lib/gcc/arm-linux-gnueabihf/6.3.0/../../../../include/c++/6.3.0/bits/stl_vector.h:1437:26
	strlo	r0, [r6, #104]
.Ltmp193:
.LBB3_20:                               @ %_ZNSt6vectorIfSaIfEE6resizeEj.exit57
	@DEBUG_VALUE: setup:context <- %R4
	.loc	3 72 28                 @ /root/Bela/projects/Yinghao-final-2/render.cpp:72:28
	vcvt.f64.f32	d16, s0
	.loc	3 72 26 is_stmt 0       @ /root/Bela/projects/Yinghao-final-2/render.cpp:72:26
	vmul.f64	d16, d16, d8
	.loc	3 72 22                 @ /root/Bela/projects/Yinghao-final-2/render.cpp:72:22
	vcvt.u32.f64	s2, d16
.Ltmp194:
	.loc	9 656 66 is_stmt 1      @ /usr/bin/../lib/gcc/arm-linux-gnueabihf/6.3.0/../../../../include/c++/6.3.0/bits/stl_vector.h:656:66
	ldrd	r2, r3, [r6, #112]
	.loc	9 656 50 is_stmt 0      @ /usr/bin/../lib/gcc/arm-linux-gnueabihf/6.3.0/../../../../include/c++/6.3.0/bits/stl_vector.h:656:50
	sub	r3, r3, r2
	asr	r1, r3, #2
.Ltmp195:
	.loc	3 72 22 is_stmt 1       @ /root/Bela/projects/Yinghao-final-2/render.cpp:72:22
	vmov	r0, s2
.Ltmp196:
	@DEBUG_VALUE: resize:__new_size <- %R0
	.loc	9 676 6                 @ /usr/bin/../lib/gcc/arm-linux-gnueabihf/6.3.0/../../../../include/c++/6.3.0/bits/stl_vector.h:676:6
	cmp	r0, r3, asr #2
	bls	.LBB3_22
.Ltmp197:
@ BB#21:
	@DEBUG_VALUE: resize:__new_size <- %R0
	@DEBUG_VALUE: setup:context <- %R4
	.loc	9 677 33                @ /usr/bin/../lib/gcc/arm-linux-gnueabihf/6.3.0/../../../../include/c++/6.3.0/bits/stl_vector.h:677:33
	sub	r1, r0, r1
	.loc	9 677 4 is_stmt 0 discriminator 1 @ /usr/bin/../lib/gcc/arm-linux-gnueabihf/6.3.0/../../../../include/c++/6.3.0/bits/stl_vector.h:677:4
	add	r0, r6, #112
.Ltmp198:
	@DEBUG_VALUE: _M_erase_at_end:this <- %R0
	bl	_ZNSt6vectorIfSaIfEE17_M_default_appendEj
.Ltmp199:
	.loc	3 73 37 is_stmt 1       @ /root/Bela/projects/Yinghao-final-2/render.cpp:73:37
	vldr	s0, [r4, #32]
	b	.LBB3_23
.Ltmp200:
.LBB3_22:
	@DEBUG_VALUE: resize:__new_size <- %R0
	@DEBUG_VALUE: setup:context <- %R4
	.loc	9 678 11                @ /usr/bin/../lib/gcc/arm-linux-gnueabihf/6.3.0/../../../../include/c++/6.3.0/bits/stl_vector.h:678:11
	cmp	r0, r1
.Ltmp201:
	.loc	9 679 43                @ /usr/bin/../lib/gcc/arm-linux-gnueabihf/6.3.0/../../../../include/c++/6.3.0/bits/stl_vector.h:679:43
	addlo	r0, r2, r0, lsl #2
.Ltmp202:
	@DEBUG_VALUE: _M_erase_at_end:__pos <- %R0
	.loc	9 1437 26               @ /usr/bin/../lib/gcc/arm-linux-gnueabihf/6.3.0/../../../../include/c++/6.3.0/bits/stl_vector.h:1437:26
	strlo	r0, [r6, #116]
.Ltmp203:
.LBB3_23:                               @ %_ZNSt6vectorIfSaIfEE6resizeEj.exit58
	@DEBUG_VALUE: setup:context <- %R4
	.loc	3 73 28                 @ /root/Bela/projects/Yinghao-final-2/render.cpp:73:28
	vcvt.f64.f32	d16, s0
.Ltmp204:
	.loc	9 656 40                @ /usr/bin/../lib/gcc/arm-linux-gnueabihf/6.3.0/../../../../include/c++/6.3.0/bits/stl_vector.h:656:40
	movw	r6, :lower16:.L_MergedGlobals.3
	movt	r6, :upper16:.L_MergedGlobals.3
.Ltmp205:
	.loc	3 73 26                 @ /root/Bela/projects/Yinghao-final-2/render.cpp:73:26
	vmul.f64	d16, d16, d8
	.loc	3 73 22 is_stmt 0       @ /root/Bela/projects/Yinghao-final-2/render.cpp:73:22
	vcvt.u32.f64	s2, d16
.Ltmp206:
	.loc	9 656 66 is_stmt 1      @ /usr/bin/../lib/gcc/arm-linux-gnueabihf/6.3.0/../../../../include/c++/6.3.0/bits/stl_vector.h:656:66
	ldrd	r2, r3, [r6]
	.loc	9 656 50 is_stmt 0      @ /usr/bin/../lib/gcc/arm-linux-gnueabihf/6.3.0/../../../../include/c++/6.3.0/bits/stl_vector.h:656:50
	sub	r3, r3, r2
	asr	r1, r3, #2
.Ltmp207:
	.loc	3 73 22 is_stmt 1       @ /root/Bela/projects/Yinghao-final-2/render.cpp:73:22
	vmov	r0, s2
.Ltmp208:
	@DEBUG_VALUE: resize:__new_size <- %R0
	.loc	9 676 6                 @ /usr/bin/../lib/gcc/arm-linux-gnueabihf/6.3.0/../../../../include/c++/6.3.0/bits/stl_vector.h:676:6
	cmp	r0, r3, asr #2
	bls	.LBB3_25
.Ltmp209:
@ BB#24:
	@DEBUG_VALUE: resize:__new_size <- %R0
	@DEBUG_VALUE: setup:context <- %R4
	.loc	9 677 33                @ /usr/bin/../lib/gcc/arm-linux-gnueabihf/6.3.0/../../../../include/c++/6.3.0/bits/stl_vector.h:677:33
	sub	r1, r0, r1
	.loc	9 677 4 is_stmt 0 discriminator 1 @ /usr/bin/../lib/gcc/arm-linux-gnueabihf/6.3.0/../../../../include/c++/6.3.0/bits/stl_vector.h:677:4
	movw	r0, :lower16:.L_MergedGlobals.3
.Ltmp210:
	movt	r0, :upper16:.L_MergedGlobals.3
.Ltmp211:
	@DEBUG_VALUE: _M_erase_at_end:this <- %R0
	bl	_ZNSt6vectorIfSaIfEE17_M_default_appendEj
.Ltmp212:
	.loc	3 74 38 is_stmt 1       @ /root/Bela/projects/Yinghao-final-2/render.cpp:74:38
	vldr	s0, [r4, #32]
	b	.LBB3_26
.Ltmp213:
.LBB3_25:
	@DEBUG_VALUE: resize:__new_size <- %R0
	@DEBUG_VALUE: setup:context <- %R4
	.loc	9 678 11                @ /usr/bin/../lib/gcc/arm-linux-gnueabihf/6.3.0/../../../../include/c++/6.3.0/bits/stl_vector.h:678:11
	cmp	r0, r1
.Ltmp214:
	.loc	9 679 43                @ /usr/bin/../lib/gcc/arm-linux-gnueabihf/6.3.0/../../../../include/c++/6.3.0/bits/stl_vector.h:679:43
	addlo	r0, r2, r0, lsl #2
.Ltmp215:
	@DEBUG_VALUE: _M_erase_at_end:__pos <- %R0
	.loc	9 1437 26               @ /usr/bin/../lib/gcc/arm-linux-gnueabihf/6.3.0/../../../../include/c++/6.3.0/bits/stl_vector.h:1437:26
	strlo	r0, [r6, #4]
.Ltmp216:
.LBB3_26:                               @ %_ZNSt6vectorIfSaIfEE6resizeEj.exit59
	@DEBUG_VALUE: setup:context <- %R4
	.loc	3 74 29                 @ /root/Bela/projects/Yinghao-final-2/render.cpp:74:29
	vcvt.f64.f32	d16, s0
	.loc	3 74 27 is_stmt 0       @ /root/Bela/projects/Yinghao-final-2/render.cpp:74:27
	vmul.f64	d16, d16, d8
	.loc	3 74 23                 @ /root/Bela/projects/Yinghao-final-2/render.cpp:74:23
	vcvt.u32.f64	s2, d16
.Ltmp217:
	.loc	9 656 66 is_stmt 1      @ /usr/bin/../lib/gcc/arm-linux-gnueabihf/6.3.0/../../../../include/c++/6.3.0/bits/stl_vector.h:656:66
	ldr	r0, [r6, #12]
	.loc	9 656 40 is_stmt 0      @ /usr/bin/../lib/gcc/arm-linux-gnueabihf/6.3.0/../../../../include/c++/6.3.0/bits/stl_vector.h:656:40
	ldr	r2, [r6, #16]
	.loc	9 656 50                @ /usr/bin/../lib/gcc/arm-linux-gnueabihf/6.3.0/../../../../include/c++/6.3.0/bits/stl_vector.h:656:50
	sub	r3, r2, r0
	asr	r2, r3, #2
.Ltmp218:
	.loc	3 74 23 is_stmt 1       @ /root/Bela/projects/Yinghao-final-2/render.cpp:74:23
	vmov	r1, s2
.Ltmp219:
	@DEBUG_VALUE: resize:__new_size <- %R1
	.loc	9 676 6                 @ /usr/bin/../lib/gcc/arm-linux-gnueabihf/6.3.0/../../../../include/c++/6.3.0/bits/stl_vector.h:676:6
	cmp	r1, r3, asr #2
	bls	.LBB3_28
.Ltmp220:
@ BB#27:
	@DEBUG_VALUE: resize:__new_size <- %R1
	@DEBUG_VALUE: setup:context <- %R4
	.loc	9 677 33                @ /usr/bin/../lib/gcc/arm-linux-gnueabihf/6.3.0/../../../../include/c++/6.3.0/bits/stl_vector.h:677:33
	sub	r1, r1, r2
.Ltmp221:
	.loc	9 677 4 is_stmt 0 discriminator 1 @ /usr/bin/../lib/gcc/arm-linux-gnueabihf/6.3.0/../../../../include/c++/6.3.0/bits/stl_vector.h:677:4
	add	r0, r6, #12
.Ltmp222:
	@DEBUG_VALUE: _M_erase_at_end:this <- %R0
	bl	_ZNSt6vectorIfSaIfEE17_M_default_appendEj
.Ltmp223:
	.loc	3 75 37 is_stmt 1       @ /root/Bela/projects/Yinghao-final-2/render.cpp:75:37
	vldr	s0, [r4, #32]
	b	.LBB3_29
.Ltmp224:
.LBB3_28:
	@DEBUG_VALUE: resize:__new_size <- %R1
	@DEBUG_VALUE: setup:context <- %R4
	.loc	9 678 11                @ /usr/bin/../lib/gcc/arm-linux-gnueabihf/6.3.0/../../../../include/c++/6.3.0/bits/stl_vector.h:678:11
	cmp	r1, r2
.Ltmp225:
	.loc	9 679 43                @ /usr/bin/../lib/gcc/arm-linux-gnueabihf/6.3.0/../../../../include/c++/6.3.0/bits/stl_vector.h:679:43
	addlo	r0, r0, r1, lsl #2
.Ltmp226:
	@DEBUG_VALUE: _M_erase_at_end:__pos <- %R0
	.loc	9 1437 26               @ /usr/bin/../lib/gcc/arm-linux-gnueabihf/6.3.0/../../../../include/c++/6.3.0/bits/stl_vector.h:1437:26
	strlo	r0, [r6, #16]
.Ltmp227:
.LBB3_29:                               @ %_ZNSt6vectorIfSaIfEE6resizeEj.exit60
	@DEBUG_VALUE: setup:context <- %R4
	.loc	3 75 28                 @ /root/Bela/projects/Yinghao-final-2/render.cpp:75:28
	vcvt.f64.f32	d16, s0
	.loc	3 75 26 is_stmt 0       @ /root/Bela/projects/Yinghao-final-2/render.cpp:75:26
	vmul.f64	d16, d16, d8
	.loc	3 75 22                 @ /root/Bela/projects/Yinghao-final-2/render.cpp:75:22
	vcvt.u32.f64	s2, d16
.Ltmp228:
	.loc	9 656 66 is_stmt 1      @ /usr/bin/../lib/gcc/arm-linux-gnueabihf/6.3.0/../../../../include/c++/6.3.0/bits/stl_vector.h:656:66
	ldrd	r2, r3, [r6, #24]
	.loc	9 656 50 is_stmt 0      @ /usr/bin/../lib/gcc/arm-linux-gnueabihf/6.3.0/../../../../include/c++/6.3.0/bits/stl_vector.h:656:50
	sub	r3, r3, r2
	asr	r1, r3, #2
.Ltmp229:
	.loc	3 75 22 is_stmt 1       @ /root/Bela/projects/Yinghao-final-2/render.cpp:75:22
	vmov	r0, s2
.Ltmp230:
	@DEBUG_VALUE: resize:__new_size <- %R0
	.loc	9 676 6                 @ /usr/bin/../lib/gcc/arm-linux-gnueabihf/6.3.0/../../../../include/c++/6.3.0/bits/stl_vector.h:676:6
	cmp	r0, r3, asr #2
	bls	.LBB3_31
.Ltmp231:
@ BB#30:
	@DEBUG_VALUE: resize:__new_size <- %R0
	@DEBUG_VALUE: setup:context <- %R4
	.loc	9 677 33                @ /usr/bin/../lib/gcc/arm-linux-gnueabihf/6.3.0/../../../../include/c++/6.3.0/bits/stl_vector.h:677:33
	sub	r1, r0, r1
	.loc	9 677 4 is_stmt 0 discriminator 1 @ /usr/bin/../lib/gcc/arm-linux-gnueabihf/6.3.0/../../../../include/c++/6.3.0/bits/stl_vector.h:677:4
	add	r0, r6, #24
.Ltmp232:
	@DEBUG_VALUE: _M_erase_at_end:this <- %R0
	bl	_ZNSt6vectorIfSaIfEE17_M_default_appendEj
.Ltmp233:
	.loc	3 76 37 is_stmt 1       @ /root/Bela/projects/Yinghao-final-2/render.cpp:76:37
	vldr	s0, [r4, #32]
	b	.LBB3_32
.Ltmp234:
.LBB3_31:
	@DEBUG_VALUE: resize:__new_size <- %R0
	@DEBUG_VALUE: setup:context <- %R4
	.loc	9 678 11                @ /usr/bin/../lib/gcc/arm-linux-gnueabihf/6.3.0/../../../../include/c++/6.3.0/bits/stl_vector.h:678:11
	cmp	r0, r1
.Ltmp235:
	.loc	9 679 43                @ /usr/bin/../lib/gcc/arm-linux-gnueabihf/6.3.0/../../../../include/c++/6.3.0/bits/stl_vector.h:679:43
	addlo	r0, r2, r0, lsl #2
.Ltmp236:
	@DEBUG_VALUE: _M_erase_at_end:__pos <- %R0
	.loc	9 1437 26               @ /usr/bin/../lib/gcc/arm-linux-gnueabihf/6.3.0/../../../../include/c++/6.3.0/bits/stl_vector.h:1437:26
	strlo	r0, [r6, #28]
.Ltmp237:
.LBB3_32:                               @ %_ZNSt6vectorIfSaIfEE6resizeEj.exit61
	@DEBUG_VALUE: setup:context <- %R4
	.loc	3 76 28                 @ /root/Bela/projects/Yinghao-final-2/render.cpp:76:28
	vcvt.f64.f32	d16, s0
	.loc	3 76 26 is_stmt 0       @ /root/Bela/projects/Yinghao-final-2/render.cpp:76:26
	vmul.f64	d16, d16, d8
	.loc	3 76 22                 @ /root/Bela/projects/Yinghao-final-2/render.cpp:76:22
	vcvt.u32.f64	s2, d16
.Ltmp238:
	.loc	9 656 66 is_stmt 1      @ /usr/bin/../lib/gcc/arm-linux-gnueabihf/6.3.0/../../../../include/c++/6.3.0/bits/stl_vector.h:656:66
	ldr	r0, [r6, #36]
	.loc	9 656 40 is_stmt 0      @ /usr/bin/../lib/gcc/arm-linux-gnueabihf/6.3.0/../../../../include/c++/6.3.0/bits/stl_vector.h:656:40
	ldr	r2, [r6, #40]
	.loc	9 656 50                @ /usr/bin/../lib/gcc/arm-linux-gnueabihf/6.3.0/../../../../include/c++/6.3.0/bits/stl_vector.h:656:50
	sub	r3, r2, r0
	asr	r2, r3, #2
.Ltmp239:
	.loc	3 76 22 is_stmt 1       @ /root/Bela/projects/Yinghao-final-2/render.cpp:76:22
	vmov	r1, s2
.Ltmp240:
	@DEBUG_VALUE: resize:__new_size <- %R1
	.loc	9 676 6                 @ /usr/bin/../lib/gcc/arm-linux-gnueabihf/6.3.0/../../../../include/c++/6.3.0/bits/stl_vector.h:676:6
	cmp	r1, r3, asr #2
	bls	.LBB3_34
.Ltmp241:
@ BB#33:
	@DEBUG_VALUE: resize:__new_size <- %R1
	@DEBUG_VALUE: setup:context <- %R4
	.loc	9 677 33                @ /usr/bin/../lib/gcc/arm-linux-gnueabihf/6.3.0/../../../../include/c++/6.3.0/bits/stl_vector.h:677:33
	sub	r1, r1, r2
.Ltmp242:
	.loc	9 677 4 is_stmt 0 discriminator 1 @ /usr/bin/../lib/gcc/arm-linux-gnueabihf/6.3.0/../../../../include/c++/6.3.0/bits/stl_vector.h:677:4
	add	r0, r6, #36
.Ltmp243:
	@DEBUG_VALUE: _M_erase_at_end:this <- %R0
	bl	_ZNSt6vectorIfSaIfEE17_M_default_appendEj
.Ltmp244:
	.loc	3 77 37 is_stmt 1       @ /root/Bela/projects/Yinghao-final-2/render.cpp:77:37
	vldr	s0, [r4, #32]
	b	.LBB3_35
.Ltmp245:
.LBB3_34:
	@DEBUG_VALUE: resize:__new_size <- %R1
	@DEBUG_VALUE: setup:context <- %R4
	.loc	9 678 11                @ /usr/bin/../lib/gcc/arm-linux-gnueabihf/6.3.0/../../../../include/c++/6.3.0/bits/stl_vector.h:678:11
	cmp	r1, r2
.Ltmp246:
	.loc	9 679 43                @ /usr/bin/../lib/gcc/arm-linux-gnueabihf/6.3.0/../../../../include/c++/6.3.0/bits/stl_vector.h:679:43
	addlo	r0, r0, r1, lsl #2
.Ltmp247:
	@DEBUG_VALUE: _M_erase_at_end:__pos <- %R0
	.loc	9 1437 26               @ /usr/bin/../lib/gcc/arm-linux-gnueabihf/6.3.0/../../../../include/c++/6.3.0/bits/stl_vector.h:1437:26
	strlo	r0, [r6, #40]
.Ltmp248:
.LBB3_35:                               @ %_ZNSt6vectorIfSaIfEE6resizeEj.exit62
	@DEBUG_VALUE: setup:context <- %R4
	.loc	3 77 28                 @ /root/Bela/projects/Yinghao-final-2/render.cpp:77:28
	vcvt.f64.f32	d16, s0
	.loc	3 77 26 is_stmt 0       @ /root/Bela/projects/Yinghao-final-2/render.cpp:77:26
	vmul.f64	d16, d16, d8
	.loc	3 77 22                 @ /root/Bela/projects/Yinghao-final-2/render.cpp:77:22
	vcvt.u32.f64	s2, d16
.Ltmp249:
	.loc	9 656 66 is_stmt 1      @ /usr/bin/../lib/gcc/arm-linux-gnueabihf/6.3.0/../../../../include/c++/6.3.0/bits/stl_vector.h:656:66
	ldrd	r2, r3, [r6, #48]
	.loc	9 656 50 is_stmt 0      @ /usr/bin/../lib/gcc/arm-linux-gnueabihf/6.3.0/../../../../include/c++/6.3.0/bits/stl_vector.h:656:50
	sub	r3, r3, r2
	asr	r1, r3, #2
.Ltmp250:
	.loc	3 77 22 is_stmt 1       @ /root/Bela/projects/Yinghao-final-2/render.cpp:77:22
	vmov	r0, s2
.Ltmp251:
	@DEBUG_VALUE: resize:__new_size <- %R0
	.loc	9 676 6                 @ /usr/bin/../lib/gcc/arm-linux-gnueabihf/6.3.0/../../../../include/c++/6.3.0/bits/stl_vector.h:676:6
	cmp	r0, r3, asr #2
	bls	.LBB3_37
.Ltmp252:
@ BB#36:
	@DEBUG_VALUE: resize:__new_size <- %R0
	@DEBUG_VALUE: setup:context <- %R4
	.loc	9 677 33                @ /usr/bin/../lib/gcc/arm-linux-gnueabihf/6.3.0/../../../../include/c++/6.3.0/bits/stl_vector.h:677:33
	sub	r1, r0, r1
	.loc	9 677 4 is_stmt 0 discriminator 1 @ /usr/bin/../lib/gcc/arm-linux-gnueabihf/6.3.0/../../../../include/c++/6.3.0/bits/stl_vector.h:677:4
	add	r0, r6, #48
.Ltmp253:
	@DEBUG_VALUE: _M_erase_at_end:this <- %R0
	bl	_ZNSt6vectorIfSaIfEE17_M_default_appendEj
.Ltmp254:
	.loc	3 78 37 is_stmt 1       @ /root/Bela/projects/Yinghao-final-2/render.cpp:78:37
	vldr	s0, [r4, #32]
	b	.LBB3_38
.Ltmp255:
.LBB3_37:
	@DEBUG_VALUE: resize:__new_size <- %R0
	@DEBUG_VALUE: setup:context <- %R4
	.loc	9 678 11                @ /usr/bin/../lib/gcc/arm-linux-gnueabihf/6.3.0/../../../../include/c++/6.3.0/bits/stl_vector.h:678:11
	cmp	r0, r1
.Ltmp256:
	.loc	9 679 43                @ /usr/bin/../lib/gcc/arm-linux-gnueabihf/6.3.0/../../../../include/c++/6.3.0/bits/stl_vector.h:679:43
	addlo	r0, r2, r0, lsl #2
.Ltmp257:
	@DEBUG_VALUE: _M_erase_at_end:__pos <- %R0
	.loc	9 1437 26               @ /usr/bin/../lib/gcc/arm-linux-gnueabihf/6.3.0/../../../../include/c++/6.3.0/bits/stl_vector.h:1437:26
	strlo	r0, [r6, #52]
.Ltmp258:
.LBB3_38:                               @ %_ZNSt6vectorIfSaIfEE6resizeEj.exit63
	@DEBUG_VALUE: setup:context <- %R4
	.loc	3 78 28                 @ /root/Bela/projects/Yinghao-final-2/render.cpp:78:28
	vcvt.f64.f32	d16, s0
	.loc	3 78 26 is_stmt 0       @ /root/Bela/projects/Yinghao-final-2/render.cpp:78:26
	vmul.f64	d16, d16, d8
	.loc	3 78 22                 @ /root/Bela/projects/Yinghao-final-2/render.cpp:78:22
	vcvt.u32.f64	s2, d16
.Ltmp259:
	.loc	9 656 66 is_stmt 1      @ /usr/bin/../lib/gcc/arm-linux-gnueabihf/6.3.0/../../../../include/c++/6.3.0/bits/stl_vector.h:656:66
	ldr	r0, [r6, #60]
	.loc	9 656 40 is_stmt 0      @ /usr/bin/../lib/gcc/arm-linux-gnueabihf/6.3.0/../../../../include/c++/6.3.0/bits/stl_vector.h:656:40
	ldr	r2, [r6, #64]
	.loc	9 656 50                @ /usr/bin/../lib/gcc/arm-linux-gnueabihf/6.3.0/../../../../include/c++/6.3.0/bits/stl_vector.h:656:50
	sub	r3, r2, r0
	asr	r2, r3, #2
.Ltmp260:
	.loc	3 78 22 is_stmt 1       @ /root/Bela/projects/Yinghao-final-2/render.cpp:78:22
	vmov	r1, s2
.Ltmp261:
	@DEBUG_VALUE: resize:__new_size <- %R1
	.loc	9 676 6                 @ /usr/bin/../lib/gcc/arm-linux-gnueabihf/6.3.0/../../../../include/c++/6.3.0/bits/stl_vector.h:676:6
	cmp	r1, r3, asr #2
	bls	.LBB3_40
.Ltmp262:
@ BB#39:
	@DEBUG_VALUE: resize:__new_size <- %R1
	@DEBUG_VALUE: setup:context <- %R4
	.loc	9 677 33                @ /usr/bin/../lib/gcc/arm-linux-gnueabihf/6.3.0/../../../../include/c++/6.3.0/bits/stl_vector.h:677:33
	sub	r1, r1, r2
.Ltmp263:
	.loc	9 677 4 is_stmt 0 discriminator 1 @ /usr/bin/../lib/gcc/arm-linux-gnueabihf/6.3.0/../../../../include/c++/6.3.0/bits/stl_vector.h:677:4
	add	r0, r6, #60
.Ltmp264:
	@DEBUG_VALUE: _M_erase_at_end:this <- %R0
	bl	_ZNSt6vectorIfSaIfEE17_M_default_appendEj
.Ltmp265:
	.loc	3 79 38 is_stmt 1       @ /root/Bela/projects/Yinghao-final-2/render.cpp:79:38
	vldr	s0, [r4, #32]
	b	.LBB3_41
.Ltmp266:
.LBB3_40:
	@DEBUG_VALUE: resize:__new_size <- %R1
	@DEBUG_VALUE: setup:context <- %R4
	.loc	9 678 11                @ /usr/bin/../lib/gcc/arm-linux-gnueabihf/6.3.0/../../../../include/c++/6.3.0/bits/stl_vector.h:678:11
	cmp	r1, r2
.Ltmp267:
	.loc	9 679 43                @ /usr/bin/../lib/gcc/arm-linux-gnueabihf/6.3.0/../../../../include/c++/6.3.0/bits/stl_vector.h:679:43
	addlo	r0, r0, r1, lsl #2
.Ltmp268:
	@DEBUG_VALUE: _M_erase_at_end:__pos <- %R0
	.loc	9 1437 26               @ /usr/bin/../lib/gcc/arm-linux-gnueabihf/6.3.0/../../../../include/c++/6.3.0/bits/stl_vector.h:1437:26
	strlo	r0, [r6, #64]
.Ltmp269:
.LBB3_41:                               @ %_ZNSt6vectorIfSaIfEE6resizeEj.exit64
	@DEBUG_VALUE: setup:context <- %R4
	.loc	3 79 29                 @ /root/Bela/projects/Yinghao-final-2/render.cpp:79:29
	vcvt.f64.f32	d16, s0
	.loc	3 79 27 is_stmt 0       @ /root/Bela/projects/Yinghao-final-2/render.cpp:79:27
	vmul.f64	d16, d16, d8
	.loc	3 79 23                 @ /root/Bela/projects/Yinghao-final-2/render.cpp:79:23
	vcvt.u32.f64	s2, d16
.Ltmp270:
	.loc	9 656 66 is_stmt 1      @ /usr/bin/../lib/gcc/arm-linux-gnueabihf/6.3.0/../../../../include/c++/6.3.0/bits/stl_vector.h:656:66
	ldrd	r2, r3, [r6, #72]
	.loc	9 656 50 is_stmt 0      @ /usr/bin/../lib/gcc/arm-linux-gnueabihf/6.3.0/../../../../include/c++/6.3.0/bits/stl_vector.h:656:50
	sub	r3, r3, r2
	asr	r1, r3, #2
.Ltmp271:
	.loc	3 79 23 is_stmt 1       @ /root/Bela/projects/Yinghao-final-2/render.cpp:79:23
	vmov	r0, s2
.Ltmp272:
	@DEBUG_VALUE: resize:__new_size <- %R0
	.loc	9 676 6                 @ /usr/bin/../lib/gcc/arm-linux-gnueabihf/6.3.0/../../../../include/c++/6.3.0/bits/stl_vector.h:676:6
	cmp	r0, r3, asr #2
	bls	.LBB3_44
.Ltmp273:
@ BB#42:
	@DEBUG_VALUE: resize:__new_size <- %R0
	@DEBUG_VALUE: setup:context <- %R4
	.loc	9 677 33                @ /usr/bin/../lib/gcc/arm-linux-gnueabihf/6.3.0/../../../../include/c++/6.3.0/bits/stl_vector.h:677:33
	sub	r1, r0, r1
	.loc	9 677 4 is_stmt 0 discriminator 1 @ /usr/bin/../lib/gcc/arm-linux-gnueabihf/6.3.0/../../../../include/c++/6.3.0/bits/stl_vector.h:677:4
	add	r0, r6, #72
.Ltmp274:
	@DEBUG_VALUE: _M_erase_at_end:this <- %R0
	bl	_ZNSt6vectorIfSaIfEE17_M_default_appendEj
.Ltmp275:
	.loc	3 80 37 is_stmt 1       @ /root/Bela/projects/Yinghao-final-2/render.cpp:80:37
	vldr	s0, [r4, #32]
	b	.LBB3_45
.Ltmp276:
	.p2align	3
@ BB#43:
.LCPI3_6:
	.long	858993459               @ double 0.29999999999999999
	.long	1070805811
.LBB3_44:
.Ltmp277:
	@DEBUG_VALUE: resize:__new_size <- %R0
	@DEBUG_VALUE: setup:context <- %R4
	.loc	9 678 11                @ /usr/bin/../lib/gcc/arm-linux-gnueabihf/6.3.0/../../../../include/c++/6.3.0/bits/stl_vector.h:678:11
	cmp	r0, r1
.Ltmp278:
	.loc	9 679 43                @ /usr/bin/../lib/gcc/arm-linux-gnueabihf/6.3.0/../../../../include/c++/6.3.0/bits/stl_vector.h:679:43
	addlo	r0, r2, r0, lsl #2
.Ltmp279:
	@DEBUG_VALUE: _M_erase_at_end:__pos <- %R0
	.loc	9 1437 26               @ /usr/bin/../lib/gcc/arm-linux-gnueabihf/6.3.0/../../../../include/c++/6.3.0/bits/stl_vector.h:1437:26
	strlo	r0, [r6, #76]
.Ltmp280:
.LBB3_45:                               @ %_ZNSt6vectorIfSaIfEE6resizeEj.exit65
	@DEBUG_VALUE: setup:context <- %R4
	.loc	3 80 28                 @ /root/Bela/projects/Yinghao-final-2/render.cpp:80:28
	vcvt.f64.f32	d16, s0
	.loc	3 80 26 is_stmt 0       @ /root/Bela/projects/Yinghao-final-2/render.cpp:80:26
	vmul.f64	d16, d16, d8
	.loc	3 80 22                 @ /root/Bela/projects/Yinghao-final-2/render.cpp:80:22
	vcvt.u32.f64	s2, d16
.Ltmp281:
	.loc	9 656 66 is_stmt 1      @ /usr/bin/../lib/gcc/arm-linux-gnueabihf/6.3.0/../../../../include/c++/6.3.0/bits/stl_vector.h:656:66
	ldr	r0, [r6, #84]
	.loc	9 656 40 is_stmt 0      @ /usr/bin/../lib/gcc/arm-linux-gnueabihf/6.3.0/../../../../include/c++/6.3.0/bits/stl_vector.h:656:40
	ldr	r2, [r6, #88]
	.loc	9 656 50                @ /usr/bin/../lib/gcc/arm-linux-gnueabihf/6.3.0/../../../../include/c++/6.3.0/bits/stl_vector.h:656:50
	sub	r3, r2, r0
	asr	r2, r3, #2
.Ltmp282:
	.loc	3 80 22 is_stmt 1       @ /root/Bela/projects/Yinghao-final-2/render.cpp:80:22
	vmov	r1, s2
.Ltmp283:
	@DEBUG_VALUE: resize:__new_size <- %R1
	.loc	9 676 6                 @ /usr/bin/../lib/gcc/arm-linux-gnueabihf/6.3.0/../../../../include/c++/6.3.0/bits/stl_vector.h:676:6
	cmp	r1, r3, asr #2
	bls	.LBB3_47
.Ltmp284:
@ BB#46:
	@DEBUG_VALUE: resize:__new_size <- %R1
	@DEBUG_VALUE: setup:context <- %R4
	.loc	9 677 33                @ /usr/bin/../lib/gcc/arm-linux-gnueabihf/6.3.0/../../../../include/c++/6.3.0/bits/stl_vector.h:677:33
	sub	r1, r1, r2
.Ltmp285:
	.loc	9 677 4 is_stmt 0 discriminator 1 @ /usr/bin/../lib/gcc/arm-linux-gnueabihf/6.3.0/../../../../include/c++/6.3.0/bits/stl_vector.h:677:4
	add	r0, r6, #84
.Ltmp286:
	@DEBUG_VALUE: _M_erase_at_end:this <- %R0
	bl	_ZNSt6vectorIfSaIfEE17_M_default_appendEj
.Ltmp287:
	.loc	3 81 37 is_stmt 1       @ /root/Bela/projects/Yinghao-final-2/render.cpp:81:37
	vldr	s0, [r4, #32]
	b	.LBB3_48
.Ltmp288:
.LBB3_47:
	@DEBUG_VALUE: resize:__new_size <- %R1
	@DEBUG_VALUE: setup:context <- %R4
	.loc	9 678 11                @ /usr/bin/../lib/gcc/arm-linux-gnueabihf/6.3.0/../../../../include/c++/6.3.0/bits/stl_vector.h:678:11
	cmp	r1, r2
.Ltmp289:
	.loc	9 679 43                @ /usr/bin/../lib/gcc/arm-linux-gnueabihf/6.3.0/../../../../include/c++/6.3.0/bits/stl_vector.h:679:43
	addlo	r0, r0, r1, lsl #2
.Ltmp290:
	@DEBUG_VALUE: _M_erase_at_end:__pos <- %R0
	.loc	9 1437 26               @ /usr/bin/../lib/gcc/arm-linux-gnueabihf/6.3.0/../../../../include/c++/6.3.0/bits/stl_vector.h:1437:26
	strlo	r0, [r6, #88]
.Ltmp291:
.LBB3_48:                               @ %_ZNSt6vectorIfSaIfEE6resizeEj.exit66
	@DEBUG_VALUE: setup:context <- %R4
	.loc	3 81 28                 @ /root/Bela/projects/Yinghao-final-2/render.cpp:81:28
	vcvt.f64.f32	d16, s0
	.loc	3 81 26 is_stmt 0       @ /root/Bela/projects/Yinghao-final-2/render.cpp:81:26
	vmul.f64	d16, d16, d8
	.loc	3 81 22                 @ /root/Bela/projects/Yinghao-final-2/render.cpp:81:22
	vcvt.u32.f64	s2, d16
.Ltmp292:
	.loc	9 656 66 is_stmt 1      @ /usr/bin/../lib/gcc/arm-linux-gnueabihf/6.3.0/../../../../include/c++/6.3.0/bits/stl_vector.h:656:66
	ldrd	r2, r3, [r6, #96]
	.loc	9 656 50 is_stmt 0      @ /usr/bin/../lib/gcc/arm-linux-gnueabihf/6.3.0/../../../../include/c++/6.3.0/bits/stl_vector.h:656:50
	sub	r3, r3, r2
	asr	r1, r3, #2
.Ltmp293:
	.loc	3 81 22 is_stmt 1       @ /root/Bela/projects/Yinghao-final-2/render.cpp:81:22
	vmov	r0, s2
.Ltmp294:
	@DEBUG_VALUE: resize:__new_size <- %R0
	.loc	9 676 6                 @ /usr/bin/../lib/gcc/arm-linux-gnueabihf/6.3.0/../../../../include/c++/6.3.0/bits/stl_vector.h:676:6
	cmp	r0, r3, asr #2
	bls	.LBB3_50
.Ltmp295:
@ BB#49:
	@DEBUG_VALUE: resize:__new_size <- %R0
	@DEBUG_VALUE: setup:context <- %R4
	.loc	9 677 33                @ /usr/bin/../lib/gcc/arm-linux-gnueabihf/6.3.0/../../../../include/c++/6.3.0/bits/stl_vector.h:677:33
	sub	r1, r0, r1
	.loc	9 677 4 is_stmt 0 discriminator 1 @ /usr/bin/../lib/gcc/arm-linux-gnueabihf/6.3.0/../../../../include/c++/6.3.0/bits/stl_vector.h:677:4
	add	r0, r6, #96
.Ltmp296:
	@DEBUG_VALUE: _M_erase_at_end:this <- %R0
	bl	_ZNSt6vectorIfSaIfEE17_M_default_appendEj
.Ltmp297:
	.loc	3 82 37 is_stmt 1       @ /root/Bela/projects/Yinghao-final-2/render.cpp:82:37
	vldr	s0, [r4, #32]
	b	.LBB3_51
.Ltmp298:
.LBB3_50:
	@DEBUG_VALUE: resize:__new_size <- %R0
	@DEBUG_VALUE: setup:context <- %R4
	.loc	9 678 11                @ /usr/bin/../lib/gcc/arm-linux-gnueabihf/6.3.0/../../../../include/c++/6.3.0/bits/stl_vector.h:678:11
	cmp	r0, r1
.Ltmp299:
	.loc	9 679 43                @ /usr/bin/../lib/gcc/arm-linux-gnueabihf/6.3.0/../../../../include/c++/6.3.0/bits/stl_vector.h:679:43
	addlo	r0, r2, r0, lsl #2
.Ltmp300:
	@DEBUG_VALUE: _M_erase_at_end:__pos <- %R0
	.loc	9 1437 26               @ /usr/bin/../lib/gcc/arm-linux-gnueabihf/6.3.0/../../../../include/c++/6.3.0/bits/stl_vector.h:1437:26
	strlo	r0, [r6, #100]
.Ltmp301:
.LBB3_51:                               @ %_ZNSt6vectorIfSaIfEE6resizeEj.exit67
	@DEBUG_VALUE: setup:context <- %R4
	.loc	3 82 28                 @ /root/Bela/projects/Yinghao-final-2/render.cpp:82:28
	vcvt.f64.f32	d16, s0
	.loc	3 82 26 is_stmt 0       @ /root/Bela/projects/Yinghao-final-2/render.cpp:82:26
	vmul.f64	d16, d16, d8
	.loc	3 82 22                 @ /root/Bela/projects/Yinghao-final-2/render.cpp:82:22
	vcvt.u32.f64	s2, d16
.Ltmp302:
	.loc	9 656 66 is_stmt 1      @ /usr/bin/../lib/gcc/arm-linux-gnueabihf/6.3.0/../../../../include/c++/6.3.0/bits/stl_vector.h:656:66
	ldr	r0, [r6, #108]
	.loc	9 656 40 is_stmt 0      @ /usr/bin/../lib/gcc/arm-linux-gnueabihf/6.3.0/../../../../include/c++/6.3.0/bits/stl_vector.h:656:40
	ldr	r2, [r6, #112]
	.loc	9 656 50                @ /usr/bin/../lib/gcc/arm-linux-gnueabihf/6.3.0/../../../../include/c++/6.3.0/bits/stl_vector.h:656:50
	sub	r3, r2, r0
	asr	r2, r3, #2
.Ltmp303:
	.loc	3 82 22 is_stmt 1       @ /root/Bela/projects/Yinghao-final-2/render.cpp:82:22
	vmov	r1, s2
.Ltmp304:
	@DEBUG_VALUE: resize:__new_size <- %R1
	.loc	9 676 6                 @ /usr/bin/../lib/gcc/arm-linux-gnueabihf/6.3.0/../../../../include/c++/6.3.0/bits/stl_vector.h:676:6
	cmp	r1, r3, asr #2
	bls	.LBB3_53
.Ltmp305:
@ BB#52:
	@DEBUG_VALUE: resize:__new_size <- %R1
	@DEBUG_VALUE: setup:context <- %R4
	.loc	9 677 33                @ /usr/bin/../lib/gcc/arm-linux-gnueabihf/6.3.0/../../../../include/c++/6.3.0/bits/stl_vector.h:677:33
	sub	r1, r1, r2
.Ltmp306:
	.loc	9 677 4 is_stmt 0 discriminator 1 @ /usr/bin/../lib/gcc/arm-linux-gnueabihf/6.3.0/../../../../include/c++/6.3.0/bits/stl_vector.h:677:4
	add	r0, r6, #108
.Ltmp307:
	@DEBUG_VALUE: _M_erase_at_end:this <- %R0
	bl	_ZNSt6vectorIfSaIfEE17_M_default_appendEj
.Ltmp308:
	.loc	3 83 37 is_stmt 1       @ /root/Bela/projects/Yinghao-final-2/render.cpp:83:37
	vldr	s0, [r4, #32]
	b	.LBB3_54
.Ltmp309:
.LBB3_53:
	@DEBUG_VALUE: resize:__new_size <- %R1
	@DEBUG_VALUE: setup:context <- %R4
	.loc	9 678 11                @ /usr/bin/../lib/gcc/arm-linux-gnueabihf/6.3.0/../../../../include/c++/6.3.0/bits/stl_vector.h:678:11
	cmp	r1, r2
.Ltmp310:
	.loc	9 679 43                @ /usr/bin/../lib/gcc/arm-linux-gnueabihf/6.3.0/../../../../include/c++/6.3.0/bits/stl_vector.h:679:43
	addlo	r0, r0, r1, lsl #2
.Ltmp311:
	@DEBUG_VALUE: _M_erase_at_end:__pos <- %R0
	.loc	9 1437 26               @ /usr/bin/../lib/gcc/arm-linux-gnueabihf/6.3.0/../../../../include/c++/6.3.0/bits/stl_vector.h:1437:26
	strlo	r0, [r6, #112]
.Ltmp312:
.LBB3_54:                               @ %_ZNSt6vectorIfSaIfEE6resizeEj.exit68
	@DEBUG_VALUE: setup:context <- %R4
	.loc	3 83 28                 @ /root/Bela/projects/Yinghao-final-2/render.cpp:83:28
	vcvt.f64.f32	d16, s0
	.loc	3 83 26 is_stmt 0       @ /root/Bela/projects/Yinghao-final-2/render.cpp:83:26
	vmul.f64	d16, d16, d8
	.loc	3 83 22                 @ /root/Bela/projects/Yinghao-final-2/render.cpp:83:22
	vcvt.u32.f64	s2, d16
.Ltmp313:
	.loc	9 656 66 is_stmt 1      @ /usr/bin/../lib/gcc/arm-linux-gnueabihf/6.3.0/../../../../include/c++/6.3.0/bits/stl_vector.h:656:66
	ldrd	r2, r3, [r10]
	.loc	9 656 50 is_stmt 0      @ /usr/bin/../lib/gcc/arm-linux-gnueabihf/6.3.0/../../../../include/c++/6.3.0/bits/stl_vector.h:656:50
	sub	r3, r3, r2
	asr	r1, r3, #2
.Ltmp314:
	.loc	3 83 22 is_stmt 1       @ /root/Bela/projects/Yinghao-final-2/render.cpp:83:22
	vmov	r0, s2
.Ltmp315:
	@DEBUG_VALUE: resize:__new_size <- %R0
	.loc	9 676 6                 @ /usr/bin/../lib/gcc/arm-linux-gnueabihf/6.3.0/../../../../include/c++/6.3.0/bits/stl_vector.h:676:6
	cmp	r0, r3, asr #2
	bls	.LBB3_56
.Ltmp316:
@ BB#55:
	@DEBUG_VALUE: resize:__new_size <- %R0
	@DEBUG_VALUE: setup:context <- %R4
	.loc	9 677 33                @ /usr/bin/../lib/gcc/arm-linux-gnueabihf/6.3.0/../../../../include/c++/6.3.0/bits/stl_vector.h:677:33
	sub	r1, r0, r1
	.loc	9 677 4 is_stmt 0 discriminator 1 @ /usr/bin/../lib/gcc/arm-linux-gnueabihf/6.3.0/../../../../include/c++/6.3.0/bits/stl_vector.h:677:4
	movw	r0, :lower16:.L_MergedGlobals.4
.Ltmp317:
	movt	r0, :upper16:.L_MergedGlobals.4
.Ltmp318:
	@DEBUG_VALUE: _M_erase_at_end:this <- %R0
	bl	_ZNSt6vectorIfSaIfEE17_M_default_appendEj
.Ltmp319:
	.loc	3 84 38 is_stmt 1       @ /root/Bela/projects/Yinghao-final-2/render.cpp:84:38
	vldr	s0, [r4, #32]
	b	.LBB3_57
.Ltmp320:
.LBB3_56:
	@DEBUG_VALUE: resize:__new_size <- %R0
	@DEBUG_VALUE: setup:context <- %R4
	.loc	9 678 11                @ /usr/bin/../lib/gcc/arm-linux-gnueabihf/6.3.0/../../../../include/c++/6.3.0/bits/stl_vector.h:678:11
	cmp	r0, r1
.Ltmp321:
	.loc	9 679 43                @ /usr/bin/../lib/gcc/arm-linux-gnueabihf/6.3.0/../../../../include/c++/6.3.0/bits/stl_vector.h:679:43
	addlo	r0, r2, r0, lsl #2
.Ltmp322:
	@DEBUG_VALUE: _M_erase_at_end:__pos <- %R0
	.loc	9 1437 26               @ /usr/bin/../lib/gcc/arm-linux-gnueabihf/6.3.0/../../../../include/c++/6.3.0/bits/stl_vector.h:1437:26
	strlo	r0, [r10, #4]
.Ltmp323:
.LBB3_57:                               @ %_ZNSt6vectorIfSaIfEE6resizeEj.exit69
	@DEBUG_VALUE: setup:context <- %R4
	.loc	3 84 29                 @ /root/Bela/projects/Yinghao-final-2/render.cpp:84:29
	vcvt.f64.f32	d16, s0
	.loc	3 84 27 is_stmt 0       @ /root/Bela/projects/Yinghao-final-2/render.cpp:84:27
	vmul.f64	d16, d16, d8
	.loc	3 84 23                 @ /root/Bela/projects/Yinghao-final-2/render.cpp:84:23
	vcvt.u32.f64	s2, d16
.Ltmp324:
	.loc	9 656 66 is_stmt 1      @ /usr/bin/../lib/gcc/arm-linux-gnueabihf/6.3.0/../../../../include/c++/6.3.0/bits/stl_vector.h:656:66
	ldr	r0, [r10, #12]
	.loc	9 656 40 is_stmt 0      @ /usr/bin/../lib/gcc/arm-linux-gnueabihf/6.3.0/../../../../include/c++/6.3.0/bits/stl_vector.h:656:40
	ldr	r2, [r10, #16]
	.loc	9 656 50                @ /usr/bin/../lib/gcc/arm-linux-gnueabihf/6.3.0/../../../../include/c++/6.3.0/bits/stl_vector.h:656:50
	sub	r3, r2, r0
	asr	r2, r3, #2
.Ltmp325:
	.loc	3 84 23 is_stmt 1       @ /root/Bela/projects/Yinghao-final-2/render.cpp:84:23
	vmov	r1, s2
.Ltmp326:
	@DEBUG_VALUE: resize:__new_size <- %R1
	.loc	9 676 6                 @ /usr/bin/../lib/gcc/arm-linux-gnueabihf/6.3.0/../../../../include/c++/6.3.0/bits/stl_vector.h:676:6
	cmp	r1, r3, asr #2
	bls	.LBB3_59
.Ltmp327:
@ BB#58:
	@DEBUG_VALUE: resize:__new_size <- %R1
	@DEBUG_VALUE: setup:context <- %R4
	.loc	9 677 33                @ /usr/bin/../lib/gcc/arm-linux-gnueabihf/6.3.0/../../../../include/c++/6.3.0/bits/stl_vector.h:677:33
	sub	r1, r1, r2
.Ltmp328:
	.loc	9 677 4 is_stmt 0 discriminator 1 @ /usr/bin/../lib/gcc/arm-linux-gnueabihf/6.3.0/../../../../include/c++/6.3.0/bits/stl_vector.h:677:4
	add	r0, r10, #12
.Ltmp329:
	@DEBUG_VALUE: _M_erase_at_end:this <- %R0
	bl	_ZNSt6vectorIfSaIfEE17_M_default_appendEj
.Ltmp330:
	.loc	3 85 37 is_stmt 1       @ /root/Bela/projects/Yinghao-final-2/render.cpp:85:37
	vldr	s0, [r4, #32]
	b	.LBB3_60
.Ltmp331:
.LBB3_59:
	@DEBUG_VALUE: resize:__new_size <- %R1
	@DEBUG_VALUE: setup:context <- %R4
	.loc	9 678 11                @ /usr/bin/../lib/gcc/arm-linux-gnueabihf/6.3.0/../../../../include/c++/6.3.0/bits/stl_vector.h:678:11
	cmp	r1, r2
.Ltmp332:
	.loc	9 679 43                @ /usr/bin/../lib/gcc/arm-linux-gnueabihf/6.3.0/../../../../include/c++/6.3.0/bits/stl_vector.h:679:43
	addlo	r0, r0, r1, lsl #2
.Ltmp333:
	@DEBUG_VALUE: _M_erase_at_end:__pos <- %R0
	.loc	9 1437 26               @ /usr/bin/../lib/gcc/arm-linux-gnueabihf/6.3.0/../../../../include/c++/6.3.0/bits/stl_vector.h:1437:26
	strlo	r0, [r10, #16]
.Ltmp334:
.LBB3_60:                               @ %_ZNSt6vectorIfSaIfEE6resizeEj.exit70
	@DEBUG_VALUE: setup:context <- %R4
	.loc	3 85 28                 @ /root/Bela/projects/Yinghao-final-2/render.cpp:85:28
	vcvt.f64.f32	d16, s0
	.loc	3 85 26 is_stmt 0       @ /root/Bela/projects/Yinghao-final-2/render.cpp:85:26
	vmul.f64	d16, d16, d8
	.loc	3 85 22                 @ /root/Bela/projects/Yinghao-final-2/render.cpp:85:22
	vcvt.u32.f64	s0, d16
.Ltmp335:
	.loc	9 656 66 is_stmt 1      @ /usr/bin/../lib/gcc/arm-linux-gnueabihf/6.3.0/../../../../include/c++/6.3.0/bits/stl_vector.h:656:66
	ldrd	r2, r3, [r10, #24]
	.loc	9 656 50 is_stmt 0      @ /usr/bin/../lib/gcc/arm-linux-gnueabihf/6.3.0/../../../../include/c++/6.3.0/bits/stl_vector.h:656:50
	sub	r3, r3, r2
	asr	r1, r3, #2
.Ltmp336:
	.loc	3 85 22 is_stmt 1       @ /root/Bela/projects/Yinghao-final-2/render.cpp:85:22
	vmov	r0, s0
.Ltmp337:
	@DEBUG_VALUE: resize:__new_size <- %R0
	.loc	9 676 6                 @ /usr/bin/../lib/gcc/arm-linux-gnueabihf/6.3.0/../../../../include/c++/6.3.0/bits/stl_vector.h:676:6
	cmp	r0, r3, asr #2
	bls	.LBB3_62
.Ltmp338:
@ BB#61:
	@DEBUG_VALUE: resize:__new_size <- %R0
	@DEBUG_VALUE: setup:context <- %R4
	.loc	9 677 33                @ /usr/bin/../lib/gcc/arm-linux-gnueabihf/6.3.0/../../../../include/c++/6.3.0/bits/stl_vector.h:677:33
	sub	r1, r0, r1
	.loc	9 677 4 is_stmt 0 discriminator 1 @ /usr/bin/../lib/gcc/arm-linux-gnueabihf/6.3.0/../../../../include/c++/6.3.0/bits/stl_vector.h:677:4
	add	r0, r10, #24
.Ltmp339:
	@DEBUG_VALUE: _M_erase_at_end:this <- %R0
	bl	_ZNSt6vectorIfSaIfEE17_M_default_appendEj
.Ltmp340:
	b	.LBB3_63
.Ltmp341:
.LBB3_62:
	@DEBUG_VALUE: resize:__new_size <- %R0
	@DEBUG_VALUE: setup:context <- %R4
	.loc	9 678 11 is_stmt 1      @ /usr/bin/../lib/gcc/arm-linux-gnueabihf/6.3.0/../../../../include/c++/6.3.0/bits/stl_vector.h:678:11
	cmp	r0, r1
.Ltmp342:
	.loc	9 679 43                @ /usr/bin/../lib/gcc/arm-linux-gnueabihf/6.3.0/../../../../include/c++/6.3.0/bits/stl_vector.h:679:43
	addlo	r0, r2, r0, lsl #2
.Ltmp343:
	@DEBUG_VALUE: _M_erase_at_end:__pos <- %R0
	.loc	9 1437 26               @ /usr/bin/../lib/gcc/arm-linux-gnueabihf/6.3.0/../../../../include/c++/6.3.0/bits/stl_vector.h:1437:26
	strlo	r0, [r10, #28]
.Ltmp344:
.LBB3_63:                               @ %_ZNSt6vectorIfSaIfEE6resizeEj.exit71
	@DEBUG_VALUE: setup:context <- %R4
	.loc	3 88 13                 @ /root/Bela/projects/Yinghao-final-2/render.cpp:88:13
	add	r6, r4, #92
.Ltmp345:
	@DEBUG_VALUE: basic_string:__s <- %R6
	@DEBUG_VALUE: length:__s <- %R6
	@DEBUG_VALUE: _M_construct<const char *>:__beg <- %R6
	@DEBUG_VALUE: _M_construct_aux<const char *>:__beg <- %R6
	@DEBUG_VALUE: _M_construct<const char *>:__beg <- %R6
	@DEBUG_VALUE: _S_copy_chars:__k1 <- %R6
	@DEBUG_VALUE: _S_copy:__s <- %R6
	@DEBUG_VALUE: assign:__c2 <- %R6
	sub	r0, r11, #152
.Ltmp346:
	@DEBUG_VALUE: _M_construct<const char *>:this <- %R0
	@DEBUG_VALUE: _M_construct_aux<const char *>:this <- %R0
	@DEBUG_VALUE: _M_construct<const char *>:this <- %R0
	@DEBUG_VALUE: _M_local_data:this <- %R0
	.loc	31 142 51               @ /usr/bin/../lib/gcc/arm-linux-gnueabihf/6.3.0/../../../../include/c++/6.3.0/bits/basic_string.h:142:51
	add	r5, r0, #8
.Ltmp347:
	.loc	31 110 25               @ /usr/bin/../lib/gcc/arm-linux-gnueabihf/6.3.0/../../../../include/c++/6.3.0/bits/basic_string.h:110:25
	str	r5, [r11, #-152]
.Ltmp348:
	.loc	33 267 16               @ /usr/bin/../lib/gcc/arm-linux-gnueabihf/6.3.0/../../../../include/c++/6.3.0/bits/char_traits.h:267:16
	mov	r0, r6
.Ltmp349:
	bl	strlen
	mov	r7, r0
.Ltmp350:
	@DEBUG_VALUE: _M_construct<const char *>:__dnew <- %R7
	@DEBUG_VALUE: _S_copy:__n <- %R7
	.file	56 "/usr/bin/../lib/gcc/arm-linux-gnueabihf/6.3.0/../../../../include/c++/6.3.0/bits" "basic_string.tcc"
	.loc	56 217 6                @ /usr/bin/../lib/gcc/arm-linux-gnueabihf/6.3.0/../../../../include/c++/6.3.0/bits/basic_string.tcc:217:6
	cmp	r7, #15
	.loc	56 215 12               @ /usr/bin/../lib/gcc/arm-linux-gnueabihf/6.3.0/../../../../include/c++/6.3.0/bits/basic_string.tcc:215:12
	str	r7, [r11, #-128]
	bls	.LBB3_66
.Ltmp351:
@ BB#64:                                @ %.noexc8.i
	@DEBUG_VALUE: _S_copy:__n <- %R7
	@DEBUG_VALUE: _M_construct<const char *>:__dnew <- %R7
	@DEBUG_VALUE: assign:__c2 <- %R6
	@DEBUG_VALUE: _S_copy:__s <- %R6
	@DEBUG_VALUE: _S_copy_chars:__k1 <- %R6
	@DEBUG_VALUE: _M_construct<const char *>:__beg <- %R6
	@DEBUG_VALUE: _M_construct_aux<const char *>:__beg <- %R6
	@DEBUG_VALUE: _M_construct<const char *>:__beg <- %R6
	@DEBUG_VALUE: length:__s <- %R6
	@DEBUG_VALUE: basic_string:__s <- %R6
	@DEBUG_VALUE: setup:context <- %R4
	.loc	56 219 14               @ /usr/bin/../lib/gcc/arm-linux-gnueabihf/6.3.0/../../../../include/c++/6.3.0/bits/basic_string.tcc:219:14
.Ltmp33:
	sub	r0, r11, #152
	sub	r1, r11, #128
.Ltmp352:
	@DEBUG_VALUE: _M_construct<const char *>:__dnew <- [%R1+0]
	mov	r2, #0
	bl	_ZNSt7__cxx1112basic_stringIcSt11char_traitsIcESaIcEE9_M_createERjj
.Ltmp353:
.Ltmp34:
.Ltmp354:
@ BB#65:                                @ %.noexc
	@DEBUG_VALUE: _S_copy:__n <- %R7
	@DEBUG_VALUE: assign:__c2 <- %R6
	@DEBUG_VALUE: _S_copy:__s <- %R6
	@DEBUG_VALUE: _S_copy_chars:__k1 <- %R6
	@DEBUG_VALUE: _M_construct<const char *>:__beg <- %R6
	@DEBUG_VALUE: _M_construct_aux<const char *>:__beg <- %R6
	@DEBUG_VALUE: _M_construct<const char *>:__beg <- %R6
	@DEBUG_VALUE: length:__s <- %R6
	@DEBUG_VALUE: basic_string:__s <- %R6
	@DEBUG_VALUE: setup:context <- %R4
	@DEBUG_VALUE: _M_data:__p <- %R0
	.loc	56 220 18               @ /usr/bin/../lib/gcc/arm-linux-gnueabihf/6.3.0/../../../../include/c++/6.3.0/bits/basic_string.tcc:220:18
	ldr	r1, [r11, #-128]
.Ltmp355:
	@DEBUG_VALUE: _M_capacity:__capacity <- %R1
	@DEBUG_VALUE: _M_construct<const char *>:__dnew <- %R1
	.loc	31 128 26               @ /usr/bin/../lib/gcc/arm-linux-gnueabihf/6.3.0/../../../../include/c++/6.3.0/bits/basic_string.h:128:26
	str	r0, [r11, #-152]
.Ltmp356:
	.loc	31 160 31               @ /usr/bin/../lib/gcc/arm-linux-gnueabihf/6.3.0/../../../../include/c++/6.3.0/bits/basic_string.h:160:31
	str	r1, [r11, #-144]
	b	.LBB3_67
.Ltmp357:
.LBB3_66:                               @ %._crit_edge.i.i.i.i
	@DEBUG_VALUE: _S_copy:__n <- %R7
	@DEBUG_VALUE: _M_construct<const char *>:__dnew <- %R7
	@DEBUG_VALUE: assign:__c2 <- %R6
	@DEBUG_VALUE: _S_copy:__s <- %R6
	@DEBUG_VALUE: _S_copy_chars:__k1 <- %R6
	@DEBUG_VALUE: _M_construct<const char *>:__beg <- %R6
	@DEBUG_VALUE: _M_construct_aux<const char *>:__beg <- %R6
	@DEBUG_VALUE: _M_construct<const char *>:__beg <- %R6
	@DEBUG_VALUE: length:__s <- %R6
	@DEBUG_VALUE: basic_string:__s <- %R6
	@DEBUG_VALUE: setup:context <- %R4
	.loc	31 136 28               @ /usr/bin/../lib/gcc/arm-linux-gnueabihf/6.3.0/../../../../include/c++/6.3.0/bits/basic_string.h:136:28
	mov	r0, r5
.Ltmp358:
.LBB3_67:
	@DEBUG_VALUE: _S_copy:__n <- %R7
	@DEBUG_VALUE: assign:__c2 <- %R6
	@DEBUG_VALUE: _S_copy:__s <- %R6
	@DEBUG_VALUE: _S_copy_chars:__k1 <- %R6
	@DEBUG_VALUE: _M_construct<const char *>:__beg <- %R6
	@DEBUG_VALUE: _M_construct_aux<const char *>:__beg <- %R6
	@DEBUG_VALUE: _M_construct<const char *>:__beg <- %R6
	@DEBUG_VALUE: length:__s <- %R6
	@DEBUG_VALUE: basic_string:__s <- %R6
	@DEBUG_VALUE: setup:context <- %R4
	.loc	31 297 6                @ /usr/bin/../lib/gcc/arm-linux-gnueabihf/6.3.0/../../../../include/c++/6.3.0/bits/basic_string.h:297:6
	cmp	r7, #0
	beq	.LBB3_74
.Ltmp359:
@ BB#68:
	@DEBUG_VALUE: _S_copy:__n <- %R7
	@DEBUG_VALUE: assign:__c2 <- %R6
	@DEBUG_VALUE: _S_copy:__s <- %R6
	@DEBUG_VALUE: _S_copy_chars:__k1 <- %R6
	@DEBUG_VALUE: _M_construct<const char *>:__beg <- %R6
	@DEBUG_VALUE: _M_construct_aux<const char *>:__beg <- %R6
	@DEBUG_VALUE: _M_construct<const char *>:__beg <- %R6
	@DEBUG_VALUE: length:__s <- %R6
	@DEBUG_VALUE: basic_string:__s <- %R6
	@DEBUG_VALUE: setup:context <- %R4
	cmp	r7, #1
	bne	.LBB3_73
.Ltmp360:
@ BB#69:
	@DEBUG_VALUE: _S_copy:__n <- %R7
	@DEBUG_VALUE: assign:__c2 <- %R6
	@DEBUG_VALUE: _S_copy:__s <- %R6
	@DEBUG_VALUE: _S_copy_chars:__k1 <- %R6
	@DEBUG_VALUE: _M_construct<const char *>:__beg <- %R6
	@DEBUG_VALUE: _M_construct_aux<const char *>:__beg <- %R6
	@DEBUG_VALUE: _M_construct<const char *>:__beg <- %R6
	@DEBUG_VALUE: length:__s <- %R6
	@DEBUG_VALUE: basic_string:__s <- %R6
	@DEBUG_VALUE: setup:context <- %R4
	.loc	33 243 16               @ /usr/bin/../lib/gcc/arm-linux-gnueabihf/6.3.0/../../../../include/c++/6.3.0/bits/char_traits.h:243:16
	ldrb	r1, [r6]
.Ltmp361:
	@DEBUG_VALUE: _S_copy_chars:__p <- %R0
	.loc	33 243 14 is_stmt 0     @ /usr/bin/../lib/gcc/arm-linux-gnueabihf/6.3.0/../../../../include/c++/6.3.0/bits/char_traits.h:243:14
	strb	r1, [r0]
	b	.LBB3_74
.Ltmp362:
	.p2align	2
@ BB#70:
.LCPI3_7:
	.long	1008981770              @ float 0.00999999977
	.p2align	2
@ BB#71:
.LCPI3_8:
	.long	1028443341              @ float 0.0500000007
	.p2align	2
@ BB#72:
.LCPI3_9:
	.long	1064514355              @ float 0.949999988
.LBB3_73:
.Ltmp363:
	@DEBUG_VALUE: _S_copy:__n <- %R7
	@DEBUG_VALUE: assign:__c2 <- %R6
	@DEBUG_VALUE: _S_copy:__s <- %R6
	@DEBUG_VALUE: _S_copy_chars:__k1 <- %R6
	@DEBUG_VALUE: _M_construct<const char *>:__beg <- %R6
	@DEBUG_VALUE: _M_construct_aux<const char *>:__beg <- %R6
	@DEBUG_VALUE: _M_construct<const char *>:__beg <- %R6
	@DEBUG_VALUE: length:__s <- %R6
	@DEBUG_VALUE: basic_string:__s <- %R6
	@DEBUG_VALUE: setup:context <- %R4
	.loc	33 290 33 is_stmt 1     @ /usr/bin/../lib/gcc/arm-linux-gnueabihf/6.3.0/../../../../include/c++/6.3.0/bits/char_traits.h:290:33
	mov	r1, r6
	mov	r2, r7
	bl	memcpy
.Ltmp364:
.LBB3_74:                               @ %._crit_edge.i.i.i.i74
	@DEBUG_VALUE: _S_copy:__n <- %R7
	@DEBUG_VALUE: assign:__c2 <- %R6
	@DEBUG_VALUE: _S_copy:__s <- %R6
	@DEBUG_VALUE: _S_copy_chars:__k1 <- %R6
	@DEBUG_VALUE: _M_construct<const char *>:__beg <- %R6
	@DEBUG_VALUE: _M_construct_aux<const char *>:__beg <- %R6
	@DEBUG_VALUE: _M_construct<const char *>:__beg <- %R6
	@DEBUG_VALUE: length:__s <- %R6
	@DEBUG_VALUE: basic_string:__s <- %R6
	@DEBUG_VALUE: setup:context <- %R4
	.loc	56 232 16               @ /usr/bin/../lib/gcc/arm-linux-gnueabihf/6.3.0/../../../../include/c++/6.3.0/bits/basic_string.tcc:232:16
	ldr	r0, [r11, #-128]
.Ltmp365:
	@DEBUG_VALUE: _M_set_length:__n <- %R0
	@DEBUG_VALUE: _M_length:__length <- %R0
	@DEBUG_VALUE: _M_construct<const char *>:__dnew <- %R0
	.loc	33 243 14               @ /usr/bin/../lib/gcc/arm-linux-gnueabihf/6.3.0/../../../../include/c++/6.3.0/bits/char_traits.h:243:14
	mov	r2, #0
.Ltmp366:
	.loc	31 132 26               @ /usr/bin/../lib/gcc/arm-linux-gnueabihf/6.3.0/../../../../include/c++/6.3.0/bits/basic_string.h:132:26
	str	r0, [r11, #-148]
	sub	r3, r11, #176
.Ltmp367:
	@DEBUG_VALUE: _M_data:this <- %R3
	@DEBUG_VALUE: _M_length:this <- %R3
	@DEBUG_VALUE: _M_set_length:__n <- 3
	@DEBUG_VALUE: _M_set_length:this <- %R3
	@DEBUG_VALUE: _M_data:this <- %R3
	@DEBUG_VALUE: _M_construct<const char *>:__dnew <- 3
	@DEBUG_VALUE: _M_construct<const char *>:this <- %R3
	@DEBUG_VALUE: _M_construct_aux<const char *>:this <- %R3
	@DEBUG_VALUE: _M_construct<const char *>:this <- %R3
	@DEBUG_VALUE: _S_copy_chars:__p <- %R6
	@DEBUG_VALUE: _S_copy:__d <- %R6
	@DEBUG_VALUE: _M_local_data:this <- %R3
	.loc	31 136 28               @ /usr/bin/../lib/gcc/arm-linux-gnueabihf/6.3.0/../../../../include/c++/6.3.0/bits/basic_string.h:136:28
	ldr	r1, [r11, #-152]
.Ltmp368:
	.loc	31 142 51               @ /usr/bin/../lib/gcc/arm-linux-gnueabihf/6.3.0/../../../../include/c++/6.3.0/bits/basic_string.h:142:51
	add	r6, r3, #8
.Ltmp369:
	.loc	33 243 14               @ /usr/bin/../lib/gcc/arm-linux-gnueabihf/6.3.0/../../../../include/c++/6.3.0/bits/char_traits.h:243:14
	strb	r2, [r1, r0]
.Ltmp370:
	.loc	33 290 33               @ /usr/bin/../lib/gcc/arm-linux-gnueabihf/6.3.0/../../../../include/c++/6.3.0/bits/char_traits.h:290:33
	mov	r0, #105
.Ltmp371:
	@DEBUG_VALUE: _S_copy:__n <- 3
	.loc	31 110 25               @ /usr/bin/../lib/gcc/arm-linux-gnueabihf/6.3.0/../../../../include/c++/6.3.0/bits/basic_string.h:110:25
	str	r6, [r11, #-176]
.Ltmp372:
	.loc	33 290 33               @ /usr/bin/../lib/gcc/arm-linux-gnueabihf/6.3.0/../../../../include/c++/6.3.0/bits/char_traits.h:290:33
	strb	r0, [r11, #-166]
	movw	r0, #30055
	strh	r0, [r11, #-168]
	mov	r0, #3
.Ltmp373:
	@DEBUG_VALUE: _M_length:__length <- 3
	.loc	31 132 26               @ /usr/bin/../lib/gcc/arm-linux-gnueabihf/6.3.0/../../../../include/c++/6.3.0/bits/basic_string.h:132:26
	str	r0, [r11, #-172]
.Ltmp374:
	.loc	33 243 14               @ /usr/bin/../lib/gcc/arm-linux-gnueabihf/6.3.0/../../../../include/c++/6.3.0/bits/char_traits.h:243:14
	strb	r2, [r11, #-165]
.Ltmp375:
	.loc	3 88 7 discriminator 2  @ /root/Bela/projects/Yinghao-final-2/render.cpp:88:7
.Ltmp36:
	movw	r0, :lower16:gGui
	sub	r1, r11, #152
.Ltmp376:
	@DEBUG_VALUE: _M_data:this <- %R1
	@DEBUG_VALUE: _M_length:this <- %R1
	movt	r0, :upper16:gGui
	movw	r2, #5555
	bl	_ZN3Gui5setupENSt7__cxx1112basic_stringIcSt11char_traitsIcESaIcEEEjS5_
.Ltmp377:
.Ltmp37:
.Ltmp378:
@ BB#75:
	@DEBUG_VALUE: _S_copy:__n <- %R7
	@DEBUG_VALUE: setup:context <- %R4
	.loc	31 136 28               @ /usr/bin/../lib/gcc/arm-linux-gnueabihf/6.3.0/../../../../include/c++/6.3.0/bits/basic_string.h:136:28
	ldr	r0, [r11, #-176]
.Ltmp379:
	@DEBUG_VALUE: deallocate:__p <- %R0
	@DEBUG_VALUE: deallocate:__p <- %R0
	.loc	31 180 6                @ /usr/bin/../lib/gcc/arm-linux-gnueabihf/6.3.0/../../../../include/c++/6.3.0/bits/basic_string.h:180:6
	cmp	r0, r6
	beq	.LBB3_77
.Ltmp380:
@ BB#76:
	@DEBUG_VALUE: deallocate:__p <- %R0
	@DEBUG_VALUE: deallocate:__p <- %R0
	@DEBUG_VALUE: _S_copy:__n <- %R7
	@DEBUG_VALUE: setup:context <- %R4
	.loc	5 110 9                 @ /usr/bin/../lib/gcc/arm-linux-gnueabihf/6.3.0/../../../../include/c++/6.3.0/ext/new_allocator.h:110:9
	bl	_ZdlPv
.Ltmp381:
.LBB3_77:                               @ %_ZNSt7__cxx1112basic_stringIcSt11char_traitsIcESaIcEED2Ev.exit
	@DEBUG_VALUE: _S_copy:__n <- %R7
	@DEBUG_VALUE: setup:context <- %R4
	.loc	31 136 28               @ /usr/bin/../lib/gcc/arm-linux-gnueabihf/6.3.0/../../../../include/c++/6.3.0/bits/basic_string.h:136:28
	ldr	r0, [r11, #-152]
.Ltmp382:
	@DEBUG_VALUE: deallocate:__p <- %R0
	@DEBUG_VALUE: deallocate:__p <- %R0
	.loc	31 180 6                @ /usr/bin/../lib/gcc/arm-linux-gnueabihf/6.3.0/../../../../include/c++/6.3.0/bits/basic_string.h:180:6
	cmp	r0, r5
	beq	.LBB3_79
.Ltmp383:
@ BB#78:
	@DEBUG_VALUE: deallocate:__p <- %R0
	@DEBUG_VALUE: deallocate:__p <- %R0
	@DEBUG_VALUE: _S_copy:__n <- %R7
	@DEBUG_VALUE: setup:context <- %R4
	.loc	5 110 9                 @ /usr/bin/../lib/gcc/arm-linux-gnueabihf/6.3.0/../../../../include/c++/6.3.0/ext/new_allocator.h:110:9
	bl	_ZdlPv
.Ltmp384:
.LBB3_79:                               @ %_ZNSt7__cxx1112basic_stringIcSt11char_traitsIcESaIcEED2Ev.exit79
	@DEBUG_VALUE: _S_copy:__n <- %R7
	@DEBUG_VALUE: setup:context <- %R4
	sub	r0, r11, #200
.Ltmp385:
	@DEBUG_VALUE: _M_construct<const char *>:this <- %R0
	@DEBUG_VALUE: _M_construct_aux<const char *>:this <- %R0
	@DEBUG_VALUE: _M_construct<const char *>:this <- %R0
	@DEBUG_VALUE: _M_local_data:this <- %R0
	.loc	56 215 12               @ /usr/bin/../lib/gcc/arm-linux-gnueabihf/6.3.0/../../../../include/c++/6.3.0/bits/basic_string.tcc:215:12
	mov	r1, #16
.Ltmp386:
	@DEBUG_VALUE: _M_construct<const char *>:__dnew <- 16
	.loc	31 142 51               @ /usr/bin/../lib/gcc/arm-linux-gnueabihf/6.3.0/../../../../include/c++/6.3.0/bits/basic_string.h:142:51
	add	r5, r0, #8
.Ltmp387:
	.loc	31 110 25               @ /usr/bin/../lib/gcc/arm-linux-gnueabihf/6.3.0/../../../../include/c++/6.3.0/bits/basic_string.h:110:25
	str	r5, [r11, #-200]
.Ltmp388:
	.loc	56 215 12               @ /usr/bin/../lib/gcc/arm-linux-gnueabihf/6.3.0/../../../../include/c++/6.3.0/bits/basic_string.tcc:215:12
	str	r1, [r11, #-124]
.Ltmp389:
	.loc	56 219 14               @ /usr/bin/../lib/gcc/arm-linux-gnueabihf/6.3.0/../../../../include/c++/6.3.0/bits/basic_string.tcc:219:14
.Ltmp39:
	sub	r1, r11, #124
.Ltmp390:
	@DEBUG_VALUE: _M_construct<const char *>:__dnew <- [%R1+0]
	mov	r2, #0
	mov	r6, #0
	bl	_ZNSt7__cxx1112basic_stringIcSt11char_traitsIcESaIcEE9_M_createERjj
.Ltmp391:
.Ltmp40:
.Ltmp392:
@ BB#80:                                @ %.noexc86
	@DEBUG_VALUE: _S_copy:__n <- %R7
	@DEBUG_VALUE: setup:context <- %R4
	.loc	33 290 33               @ /usr/bin/../lib/gcc/arm-linux-gnueabihf/6.3.0/../../../../include/c++/6.3.0/bits/char_traits.h:290:33
	movw	r2, :lower16:.L.str.31
.Ltmp393:
	.loc	56 220 18               @ /usr/bin/../lib/gcc/arm-linux-gnueabihf/6.3.0/../../../../include/c++/6.3.0/bits/basic_string.tcc:220:18
	ldr	r1, [r11, #-124]
.Ltmp394:
	@DEBUG_VALUE: _M_capacity:__capacity <- %R1
	@DEBUG_VALUE: _M_set_length:__n <- %R1
	@DEBUG_VALUE: _M_length:__length <- %R1
	@DEBUG_VALUE: _M_construct<const char *>:__dnew <- %R1
	.loc	33 290 33               @ /usr/bin/../lib/gcc/arm-linux-gnueabihf/6.3.0/../../../../include/c++/6.3.0/bits/char_traits.h:290:33
	movt	r2, :upper16:.L.str.31
	vld1.64	{d16, d17}, [r2]
.Ltmp395:
	.loc	31 128 26               @ /usr/bin/../lib/gcc/arm-linux-gnueabihf/6.3.0/../../../../include/c++/6.3.0/bits/basic_string.h:128:26
	str	r0, [r11, #-200]
.Ltmp396:
	@DEBUG_VALUE: _M_data:__p <- %R0
	.loc	31 160 31               @ /usr/bin/../lib/gcc/arm-linux-gnueabihf/6.3.0/../../../../include/c++/6.3.0/bits/basic_string.h:160:31
	str	r1, [r11, #-192]
.Ltmp397:
	@DEBUG_VALUE: _S_copy:__d <- %R0
	@DEBUG_VALUE: _S_copy:__n <- 16
	.loc	33 290 33               @ /usr/bin/../lib/gcc/arm-linux-gnueabihf/6.3.0/../../../../include/c++/6.3.0/bits/char_traits.h:290:33
	vst1.8	{d16, d17}, [r0]
.Ltmp398:
	.loc	31 132 26               @ /usr/bin/../lib/gcc/arm-linux-gnueabihf/6.3.0/../../../../include/c++/6.3.0/bits/basic_string.h:132:26
	str	r1, [r11, #-196]
.Ltmp399:
	.loc	31 136 28               @ /usr/bin/../lib/gcc/arm-linux-gnueabihf/6.3.0/../../../../include/c++/6.3.0/bits/basic_string.h:136:28
	ldr	r0, [r11, #-200]
.Ltmp400:
	.loc	33 243 14               @ /usr/bin/../lib/gcc/arm-linux-gnueabihf/6.3.0/../../../../include/c++/6.3.0/bits/char_traits.h:243:14
	strb	r6, [r0, r1]
.Ltmp401:
	.loc	3 89 17 discriminator 1 @ /root/Bela/projects/Yinghao-final-2/render.cpp:89:17
.Ltmp42:
	add	r6, r10, #60
	movw	r1, :lower16:gGui
.Ltmp402:
	sub	r2, r11, #200
.Ltmp403:
	@DEBUG_VALUE: _M_data:this <- %R2
	@DEBUG_VALUE: _M_length:this <- %R2
	@DEBUG_VALUE: _M_set_length:this <- %R2
	@DEBUG_VALUE: _M_data:this <- %R2
	@DEBUG_VALUE: _M_capacity:this <- %R2
	@DEBUG_VALUE: _M_data:this <- %R2
	movt	r1, :upper16:gGui
	mov	r0, r6
	bl	_ZN13GuiController5setupEP3GuiNSt7__cxx1112basic_stringIcSt11char_traitsIcESaIcEEE
.Ltmp404:
.Ltmp43:
.Ltmp405:
	@DEBUG_VALUE: _S_copy:__s <- %R2
@ BB#81:
	@DEBUG_VALUE: _S_copy:__s <- %R2
	@DEBUG_VALUE: _S_copy:__n <- %R7
	@DEBUG_VALUE: setup:context <- %R4
	.loc	31 136 28               @ /usr/bin/../lib/gcc/arm-linux-gnueabihf/6.3.0/../../../../include/c++/6.3.0/bits/basic_string.h:136:28
	ldr	r0, [r11, #-200]
.Ltmp406:
	@DEBUG_VALUE: deallocate:__p <- %R0
	@DEBUG_VALUE: deallocate:__p <- %R0
	.loc	31 180 6                @ /usr/bin/../lib/gcc/arm-linux-gnueabihf/6.3.0/../../../../include/c++/6.3.0/bits/basic_string.h:180:6
	cmp	r0, r5
	beq	.LBB3_83
.Ltmp407:
@ BB#82:
	@DEBUG_VALUE: deallocate:__p <- %R0
	@DEBUG_VALUE: deallocate:__p <- %R0
	@DEBUG_VALUE: _S_copy:__s <- %R2
	@DEBUG_VALUE: _S_copy:__n <- %R7
	@DEBUG_VALUE: setup:context <- %R4
	.loc	5 110 9                 @ /usr/bin/../lib/gcc/arm-linux-gnueabihf/6.3.0/../../../../include/c++/6.3.0/ext/new_allocator.h:110:9
	bl	_ZdlPv
.Ltmp408:
.LBB3_83:                               @ %_ZNSt7__cxx1112basic_stringIcSt11char_traitsIcESaIcEED2Ev.exit88
	@DEBUG_VALUE: _S_copy:__n <- %R7
	@DEBUG_VALUE: setup:context <- %R4
	sub	r1, r11, #224
.Ltmp409:
	@DEBUG_VALUE: _M_data:this <- %R1
	@DEBUG_VALUE: _M_length:this <- %R1
	@DEBUG_VALUE: _M_set_length:__n <- 5
	@DEBUG_VALUE: _M_set_length:this <- %R1
	@DEBUG_VALUE: _M_data:this <- %R1
	@DEBUG_VALUE: _M_construct<const char *>:__dnew <- 5
	@DEBUG_VALUE: _M_construct<const char *>:this <- %R1
	@DEBUG_VALUE: _M_construct_aux<const char *>:this <- %R1
	@DEBUG_VALUE: _M_construct<const char *>:this <- %R1
	@DEBUG_VALUE: _S_copy_chars:__p <- %R5
	@DEBUG_VALUE: _S_copy:__d <- %R5
	@DEBUG_VALUE: _M_local_data:this <- %R1
	.loc	33 290 33               @ /usr/bin/../lib/gcc/arm-linux-gnueabihf/6.3.0/../../../../include/c++/6.3.0/bits/char_traits.h:290:33
	mov	r3, #121
.Ltmp410:
	@DEBUG_VALUE: _S_copy:__n <- 5
	.loc	31 142 51               @ /usr/bin/../lib/gcc/arm-linux-gnueabihf/6.3.0/../../../../include/c++/6.3.0/bits/basic_string.h:142:51
	add	r5, r1, #8
.Ltmp411:
	.loc	31 110 25               @ /usr/bin/../lib/gcc/arm-linux-gnueabihf/6.3.0/../../../../include/c++/6.3.0/bits/basic_string.h:110:25
	str	r5, [r11, #-224]
.Ltmp412:
	.loc	33 290 33               @ /usr/bin/../lib/gcc/arm-linux-gnueabihf/6.3.0/../../../../include/c++/6.3.0/bits/char_traits.h:290:33
	strb	r3, [r11, #-212]
	movw	r3, #25924
	mov	r0, #0
	movt	r3, #24940
	mov	r2, #5
	str	r3, [r11, #-216]
.Ltmp413:
	@DEBUG_VALUE: _M_length:__length <- 5
	.loc	31 132 26               @ /usr/bin/../lib/gcc/arm-linux-gnueabihf/6.3.0/../../../../include/c++/6.3.0/bits/basic_string.h:132:26
	str	r2, [r11, #-220]
.Ltmp414:
	.loc	3 91 17 discriminator 1 @ /root/Bela/projects/Yinghao-final-2/render.cpp:91:17
	vmov.i32	d2, #0x0
	vldr	s0, .LCPI3_7
	vldr	s2, .LCPI3_8
.Ltmp415:
	.loc	33 243 14               @ /usr/bin/../lib/gcc/arm-linux-gnueabihf/6.3.0/../../../../include/c++/6.3.0/bits/char_traits.h:243:14
	strb	r0, [r11, #-211]
.Ltmp416:
	.loc	3 91 17 discriminator 1 @ /root/Bela/projects/Yinghao-final-2/render.cpp:91:17
.Ltmp45:
	vmov.f32	s1, s4
	mov	r0, r6
	vmov.f32	s3, s4
	bl	_ZN13GuiController9addSliderENSt7__cxx1112basic_stringIcSt11char_traitsIcESaIcEEEffff
.Ltmp417:
.Ltmp46:
.Ltmp418:
@ BB#84:
	@DEBUG_VALUE: _S_copy:__n <- %R7
	@DEBUG_VALUE: setup:context <- %R4
	.loc	31 136 28               @ /usr/bin/../lib/gcc/arm-linux-gnueabihf/6.3.0/../../../../include/c++/6.3.0/bits/basic_string.h:136:28
	ldr	r0, [r11, #-224]
.Ltmp419:
	@DEBUG_VALUE: deallocate:__p <- %R0
	@DEBUG_VALUE: deallocate:__p <- %R0
	.loc	31 180 6                @ /usr/bin/../lib/gcc/arm-linux-gnueabihf/6.3.0/../../../../include/c++/6.3.0/bits/basic_string.h:180:6
	cmp	r0, r5
	beq	.LBB3_86
.Ltmp420:
@ BB#85:
	@DEBUG_VALUE: deallocate:__p <- %R0
	@DEBUG_VALUE: deallocate:__p <- %R0
	@DEBUG_VALUE: _S_copy:__n <- %R7
	@DEBUG_VALUE: setup:context <- %R4
	.loc	5 110 9                 @ /usr/bin/../lib/gcc/arm-linux-gnueabihf/6.3.0/../../../../include/c++/6.3.0/ext/new_allocator.h:110:9
	bl	_ZdlPv
.Ltmp421:
.LBB3_86:                               @ %_ZNSt7__cxx1112basic_stringIcSt11char_traitsIcESaIcEED2Ev.exit96
	@DEBUG_VALUE: _S_copy:__n <- %R7
	@DEBUG_VALUE: setup:context <- %R4
	.loc	33 290 33               @ /usr/bin/../lib/gcc/arm-linux-gnueabihf/6.3.0/../../../../include/c++/6.3.0/bits/char_traits.h:290:33
	movw	r3, #24930
	sub	r1, r11, #248
.Ltmp422:
	@DEBUG_VALUE: _M_data:this <- %R1
	@DEBUG_VALUE: _M_length:this <- %R1
	@DEBUG_VALUE: _M_set_length:__n <- 8
	@DEBUG_VALUE: _M_set_length:this <- %R1
	@DEBUG_VALUE: _M_data:this <- %R1
	@DEBUG_VALUE: _M_construct<const char *>:__dnew <- 8
	@DEBUG_VALUE: _M_construct<const char *>:this <- %R1
	@DEBUG_VALUE: _M_construct_aux<const char *>:this <- %R1
	@DEBUG_VALUE: _M_construct<const char *>:this <- %R1
	@DEBUG_VALUE: _M_local_data:this <- %R1
	movt	r3, #27491
.Ltmp423:
	@DEBUG_VALUE: _S_copy:__n <- 8
	.loc	31 142 51               @ /usr/bin/../lib/gcc/arm-linux-gnueabihf/6.3.0/../../../../include/c++/6.3.0/bits/basic_string.h:142:51
	add	r5, r1, #8
.Ltmp424:
	.loc	31 110 25               @ /usr/bin/../lib/gcc/arm-linux-gnueabihf/6.3.0/../../../../include/c++/6.3.0/bits/basic_string.h:110:25
	str	r5, [r11, #-248]
	mov	r0, #0
.Ltmp425:
	.loc	33 290 33               @ /usr/bin/../lib/gcc/arm-linux-gnueabihf/6.3.0/../../../../include/c++/6.3.0/bits/char_traits.h:290:33
	str	r3, [r11, #-236]
	movw	r3, #25926
	movt	r3, #25697
	mov	r2, #8
	str	r3, [r11, #-240]
.Ltmp426:
	@DEBUG_VALUE: _M_length:__length <- 8
	.loc	3 92 17 discriminator 1 @ /root/Bela/projects/Yinghao-final-2/render.cpp:92:17
	vmov.i32	d2, #0x0
.Ltmp427:
	.loc	31 132 26               @ /usr/bin/../lib/gcc/arm-linux-gnueabihf/6.3.0/../../../../include/c++/6.3.0/bits/basic_string.h:132:26
	str	r2, [r11, #-244]
.Ltmp428:
	.loc	3 92 17 discriminator 1 @ /root/Bela/projects/Yinghao-final-2/render.cpp:92:17
	vldr	s2, .LCPI3_9
.Ltmp429:
	.loc	33 243 14               @ /usr/bin/../lib/gcc/arm-linux-gnueabihf/6.3.0/../../../../include/c++/6.3.0/bits/char_traits.h:243:14
	strb	r0, [r11, #-232]
.Ltmp430:
	.loc	3 92 17 discriminator 1 @ /root/Bela/projects/Yinghao-final-2/render.cpp:92:17
.Ltmp48:
	vmov.f32	d0, #5.000000e-01
	mov	r0, r6
	vmov.f32	s1, s4
	vmov.f32	s3, s4
	bl	_ZN13GuiController9addSliderENSt7__cxx1112basic_stringIcSt11char_traitsIcESaIcEEEffff
.Ltmp431:
.Ltmp49:
.Ltmp432:
@ BB#87:
	@DEBUG_VALUE: _S_copy:__n <- %R7
	@DEBUG_VALUE: setup:context <- %R4
	.loc	31 136 28               @ /usr/bin/../lib/gcc/arm-linux-gnueabihf/6.3.0/../../../../include/c++/6.3.0/bits/basic_string.h:136:28
	ldr	r0, [r11, #-248]
.Ltmp433:
	@DEBUG_VALUE: deallocate:__p <- %R0
	@DEBUG_VALUE: deallocate:__p <- %R0
	.loc	31 180 6                @ /usr/bin/../lib/gcc/arm-linux-gnueabihf/6.3.0/../../../../include/c++/6.3.0/bits/basic_string.h:180:6
	cmp	r0, r5
	beq	.LBB3_89
.Ltmp434:
@ BB#88:
	@DEBUG_VALUE: deallocate:__p <- %R0
	@DEBUG_VALUE: deallocate:__p <- %R0
	@DEBUG_VALUE: _S_copy:__n <- %R7
	@DEBUG_VALUE: setup:context <- %R4
	.loc	5 110 9                 @ /usr/bin/../lib/gcc/arm-linux-gnueabihf/6.3.0/../../../../include/c++/6.3.0/ext/new_allocator.h:110:9
	bl	_ZdlPv
.Ltmp435:
.LBB3_89:                               @ %_ZNSt7__cxx1112basic_stringIcSt11char_traitsIcESaIcEED2Ev.exit104
	@DEBUG_VALUE: _S_copy:__n <- %R7
	@DEBUG_VALUE: setup:context <- %R4
	.loc	33 290 33               @ /usr/bin/../lib/gcc/arm-linux-gnueabihf/6.3.0/../../../../include/c++/6.3.0/bits/char_traits.h:290:33
	movw	r2, :lower16:.L.str.34
	add	r1, sp, #240
.Ltmp436:
	@DEBUG_VALUE: _M_data:this <- %R1
	@DEBUG_VALUE: _M_length:this <- %R1
	@DEBUG_VALUE: _M_set_length:__n <- 14
	@DEBUG_VALUE: _M_set_length:this <- %R1
	@DEBUG_VALUE: _M_data:this <- %R1
	@DEBUG_VALUE: _M_construct<const char *>:__dnew <- 14
	@DEBUG_VALUE: _M_construct<const char *>:this <- %R1
	@DEBUG_VALUE: _M_construct_aux<const char *>:this <- %R1
	@DEBUG_VALUE: _M_construct<const char *>:this <- %R1
	@DEBUG_VALUE: _S_copy_chars:__p <- %R5
	@DEBUG_VALUE: _S_copy:__d <- %R5
	@DEBUG_VALUE: _M_local_data:this <- %R1
	movt	r2, :upper16:.L.str.34
	add	r3, r2, #6
.Ltmp437:
	.loc	31 142 51               @ /usr/bin/../lib/gcc/arm-linux-gnueabihf/6.3.0/../../../../include/c++/6.3.0/bits/basic_string.h:142:51
	add	r5, r1, #8
.Ltmp438:
	.loc	33 290 33               @ /usr/bin/../lib/gcc/arm-linux-gnueabihf/6.3.0/../../../../include/c++/6.3.0/bits/char_traits.h:290:33
	vldr	d17, [r2]
	vld1.16	{d16}, [r3]
	add	r3, r1, #14
	mov	r0, #0
	mov	r2, #14
.Ltmp439:
	.loc	31 110 25               @ /usr/bin/../lib/gcc/arm-linux-gnueabihf/6.3.0/../../../../include/c++/6.3.0/bits/basic_string.h:110:25
	str	r5, [sp, #240]
.Ltmp440:
	@DEBUG_VALUE: _S_copy:__n <- 14
	.loc	3 93 17 discriminator 1 @ /root/Bela/projects/Yinghao-final-2/render.cpp:93:17
	vmov.i32	d2, #0x0
.Ltmp441:
	.loc	33 290 33               @ /usr/bin/../lib/gcc/arm-linux-gnueabihf/6.3.0/../../../../include/c++/6.3.0/bits/char_traits.h:290:33
	vst1.16	{d16}, [r3]
	vstr	d17, [sp, #248]
.Ltmp442:
	@DEBUG_VALUE: _M_length:__length <- 14
	.loc	31 132 26               @ /usr/bin/../lib/gcc/arm-linux-gnueabihf/6.3.0/../../../../include/c++/6.3.0/bits/basic_string.h:132:26
	str	r2, [sp, #244]
.Ltmp443:
	.loc	3 93 17 discriminator 1 @ /root/Bela/projects/Yinghao-final-2/render.cpp:93:17
	vldr	s2, .LCPI3_9
.Ltmp444:
	.loc	33 243 14               @ /usr/bin/../lib/gcc/arm-linux-gnueabihf/6.3.0/../../../../include/c++/6.3.0/bits/char_traits.h:243:14
	strb	r0, [sp, #262]
.Ltmp445:
	.loc	3 93 17 discriminator 1 @ /root/Bela/projects/Yinghao-final-2/render.cpp:93:17
.Ltmp51:
	vmov.f32	d0, #5.000000e-01
	mov	r0, r6
	vmov.f32	s1, s4
	vmov.f32	s3, s4
	bl	_ZN13GuiController9addSliderENSt7__cxx1112basic_stringIcSt11char_traitsIcESaIcEEEffff
.Ltmp446:
.Ltmp52:
.Ltmp447:
	@DEBUG_VALUE: _S_copy:__s <- %R2
@ BB#90:
	@DEBUG_VALUE: _S_copy:__s <- %R2
	@DEBUG_VALUE: _S_copy:__n <- %R7
	@DEBUG_VALUE: setup:context <- %R4
	.loc	31 136 28               @ /usr/bin/../lib/gcc/arm-linux-gnueabihf/6.3.0/../../../../include/c++/6.3.0/bits/basic_string.h:136:28
	ldr	r0, [sp, #240]
.Ltmp448:
	@DEBUG_VALUE: deallocate:__p <- %R0
	@DEBUG_VALUE: deallocate:__p <- %R0
	.loc	31 180 6                @ /usr/bin/../lib/gcc/arm-linux-gnueabihf/6.3.0/../../../../include/c++/6.3.0/bits/basic_string.h:180:6
	cmp	r0, r5
	beq	.LBB3_92
.Ltmp449:
@ BB#91:
	@DEBUG_VALUE: deallocate:__p <- %R0
	@DEBUG_VALUE: deallocate:__p <- %R0
	@DEBUG_VALUE: _S_copy:__s <- %R2
	@DEBUG_VALUE: _S_copy:__n <- %R7
	@DEBUG_VALUE: setup:context <- %R4
	.loc	5 110 9                 @ /usr/bin/../lib/gcc/arm-linux-gnueabihf/6.3.0/../../../../include/c++/6.3.0/ext/new_allocator.h:110:9
	bl	_ZdlPv
.Ltmp450:
.LBB3_92:                               @ %_ZNSt7__cxx1112basic_stringIcSt11char_traitsIcESaIcEED2Ev.exit112
	@DEBUG_VALUE: _S_copy:__n <- %R7
	@DEBUG_VALUE: setup:context <- %R4
	add	r0, sp, #216
.Ltmp451:
	@DEBUG_VALUE: _M_construct<const char *>:this <- %R0
	@DEBUG_VALUE: _M_construct_aux<const char *>:this <- %R0
	@DEBUG_VALUE: _M_construct<const char *>:this <- %R0
	@DEBUG_VALUE: _M_local_data:this <- %R0
	.loc	56 215 12               @ /usr/bin/../lib/gcc/arm-linux-gnueabihf/6.3.0/../../../../include/c++/6.3.0/bits/basic_string.tcc:215:12
	mov	r1, #19
.Ltmp452:
	@DEBUG_VALUE: _M_construct<const char *>:__dnew <- 19
	.loc	31 142 51               @ /usr/bin/../lib/gcc/arm-linux-gnueabihf/6.3.0/../../../../include/c++/6.3.0/bits/basic_string.h:142:51
	add	r7, r0, #8
.Ltmp453:
	.loc	31 110 25               @ /usr/bin/../lib/gcc/arm-linux-gnueabihf/6.3.0/../../../../include/c++/6.3.0/bits/basic_string.h:110:25
	str	r7, [sp, #216]
.Ltmp454:
	.loc	56 215 12               @ /usr/bin/../lib/gcc/arm-linux-gnueabihf/6.3.0/../../../../include/c++/6.3.0/bits/basic_string.tcc:215:12
	str	r1, [r11, #-120]
.Ltmp455:
	.loc	56 219 14               @ /usr/bin/../lib/gcc/arm-linux-gnueabihf/6.3.0/../../../../include/c++/6.3.0/bits/basic_string.tcc:219:14
.Ltmp54:
	sub	r1, r11, #120
.Ltmp456:
	@DEBUG_VALUE: _M_construct<const char *>:__dnew <- [%R1+0]
	mov	r2, #0
	mov	r5, #0
	bl	_ZNSt7__cxx1112basic_stringIcSt11char_traitsIcESaIcEE9_M_createERjj
.Ltmp457:
.Ltmp55:
.Ltmp458:
@ BB#93:                                @ %.noexc118
	@DEBUG_VALUE: setup:context <- %R4
	.loc	33 290 33               @ /usr/bin/../lib/gcc/arm-linux-gnueabihf/6.3.0/../../../../include/c++/6.3.0/bits/char_traits.h:290:33
	movw	r1, :lower16:.L.str.35
.Ltmp459:
	.loc	56 220 18               @ /usr/bin/../lib/gcc/arm-linux-gnueabihf/6.3.0/../../../../include/c++/6.3.0/bits/basic_string.tcc:220:18
	ldr	r2, [r11, #-120]
.Ltmp460:
	@DEBUG_VALUE: _M_capacity:__capacity <- %R2
	@DEBUG_VALUE: _M_set_length:__n <- %R2
	@DEBUG_VALUE: _M_length:__length <- %R2
	@DEBUG_VALUE: _M_construct<const char *>:__dnew <- %R2
	.loc	33 290 33               @ /usr/bin/../lib/gcc/arm-linux-gnueabihf/6.3.0/../../../../include/c++/6.3.0/bits/char_traits.h:290:33
	movt	r1, :upper16:.L.str.35
	vld1.64	{d16, d17}, [r1]
	mov	r1, #122
.Ltmp461:
	.loc	3 94 17 discriminator 1 @ /root/Bela/projects/Yinghao-final-2/render.cpp:94:17
	vmov.i32	d2, #0x0
.Ltmp462:
	.loc	31 128 26               @ /usr/bin/../lib/gcc/arm-linux-gnueabihf/6.3.0/../../../../include/c++/6.3.0/bits/basic_string.h:128:26
	str	r0, [sp, #216]
.Ltmp463:
	@DEBUG_VALUE: _M_data:__p <- %R0
	.loc	31 160 31               @ /usr/bin/../lib/gcc/arm-linux-gnueabihf/6.3.0/../../../../include/c++/6.3.0/bits/basic_string.h:160:31
	str	r2, [sp, #224]
.Ltmp464:
	@DEBUG_VALUE: _S_copy:__d <- %R0
	@DEBUG_VALUE: _S_copy:__n <- 19
	.loc	33 290 33               @ /usr/bin/../lib/gcc/arm-linux-gnueabihf/6.3.0/../../../../include/c++/6.3.0/bits/char_traits.h:290:33
	strb	r1, [r0, #18]
	movw	r1, #18464
	vst1.8	{d16, d17}, [r0]!
.Ltmp465:
	strh	r1, [r0]
	add	r1, sp, #216
.Ltmp466:
	@DEBUG_VALUE: _M_data:this <- %R1
	@DEBUG_VALUE: _M_length:this <- %R1
	@DEBUG_VALUE: _M_set_length:this <- %R1
	@DEBUG_VALUE: _M_data:this <- %R1
	@DEBUG_VALUE: _M_capacity:this <- %R1
	@DEBUG_VALUE: _M_data:this <- %R1
	.loc	31 132 26               @ /usr/bin/../lib/gcc/arm-linux-gnueabihf/6.3.0/../../../../include/c++/6.3.0/bits/basic_string.h:132:26
	str	r2, [sp, #220]
.Ltmp467:
	.loc	31 136 28               @ /usr/bin/../lib/gcc/arm-linux-gnueabihf/6.3.0/../../../../include/c++/6.3.0/bits/basic_string.h:136:28
	ldr	r0, [sp, #216]
.Ltmp468:
	.loc	33 243 14               @ /usr/bin/../lib/gcc/arm-linux-gnueabihf/6.3.0/../../../../include/c++/6.3.0/bits/char_traits.h:243:14
	strb	r5, [r0, r2]
.Ltmp469:
	.loc	3 94 17 discriminator 1 @ /root/Bela/projects/Yinghao-final-2/render.cpp:94:17
.Ltmp57:
	vmov.i32	d0, #0x0
	mov	r0, r6
	vmov.f32	d1, #2.000000e+01
	vmov.f32	s1, s4
	vmov.f32	s3, s4
	bl	_ZN13GuiController9addSliderENSt7__cxx1112basic_stringIcSt11char_traitsIcESaIcEEEffff
.Ltmp470:
.Ltmp58:
.Ltmp471:
	@DEBUG_VALUE: _S_copy:__s <- %R1
@ BB#94:
	@DEBUG_VALUE: _S_copy:__s <- %R1
	@DEBUG_VALUE: setup:context <- %R4
	.loc	31 136 28               @ /usr/bin/../lib/gcc/arm-linux-gnueabihf/6.3.0/../../../../include/c++/6.3.0/bits/basic_string.h:136:28
	ldr	r0, [sp, #216]
.Ltmp472:
	@DEBUG_VALUE: deallocate:__p <- %R0
	@DEBUG_VALUE: deallocate:__p <- %R0
	.loc	3 58 25                 @ /root/Bela/projects/Yinghao-final-2/render.cpp:58:25
	add	r5, sp, #156
.Ltmp473:
	.loc	31 180 6                @ /usr/bin/../lib/gcc/arm-linux-gnueabihf/6.3.0/../../../../include/c++/6.3.0/bits/basic_string.h:180:6
	cmp	r0, r7
	beq	.LBB3_96
.Ltmp474:
@ BB#95:
	@DEBUG_VALUE: deallocate:__p <- %R0
	@DEBUG_VALUE: deallocate:__p <- %R0
	@DEBUG_VALUE: _S_copy:__s <- %R1
	@DEBUG_VALUE: setup:context <- %R4
	.loc	5 110 9                 @ /usr/bin/../lib/gcc/arm-linux-gnueabihf/6.3.0/../../../../include/c++/6.3.0/ext/new_allocator.h:110:9
	bl	_ZdlPv
.Ltmp475:
.LBB3_96:                               @ %_ZNSt7__cxx1112basic_stringIcSt11char_traitsIcESaIcEED2Ev.exit120
	@DEBUG_VALUE: setup:context <- %R4
	add	r1, sp, #192
.Ltmp476:
	@DEBUG_VALUE: _M_data:this <- %R1
	@DEBUG_VALUE: _M_length:this <- %R1
	@DEBUG_VALUE: _M_set_length:__n <- 7
	@DEBUG_VALUE: _M_set_length:this <- %R1
	@DEBUG_VALUE: _M_data:this <- %R1
	@DEBUG_VALUE: _M_construct<const char *>:__dnew <- 7
	@DEBUG_VALUE: _M_construct<const char *>:this <- %R1
	@DEBUG_VALUE: _M_construct_aux<const char *>:this <- %R1
	@DEBUG_VALUE: _M_construct<const char *>:this <- %R1
	@DEBUG_VALUE: _S_copy_chars:__p <- %R7
	@DEBUG_VALUE: _S_copy:__d <- %R7
	@DEBUG_VALUE: _M_local_data:this <- %R1
	.loc	33 290 33               @ /usr/bin/../lib/gcc/arm-linux-gnueabihf/6.3.0/../../../../include/c++/6.3.0/bits/char_traits.h:290:33
	mov	r3, #50
.Ltmp477:
	@DEBUG_VALUE: _S_copy:__n <- 7
	.loc	31 142 51               @ /usr/bin/../lib/gcc/arm-linux-gnueabihf/6.3.0/../../../../include/c++/6.3.0/bits/basic_string.h:142:51
	add	r7, r1, #8
.Ltmp478:
	.loc	31 110 25               @ /usr/bin/../lib/gcc/arm-linux-gnueabihf/6.3.0/../../../../include/c++/6.3.0/bits/basic_string.h:110:25
	str	r7, [sp, #192]
.Ltmp479:
	.loc	33 290 33               @ /usr/bin/../lib/gcc/arm-linux-gnueabihf/6.3.0/../../../../include/c++/6.3.0/bits/char_traits.h:290:33
	strb	r3, [sp, #206]
	movw	r3, #24441
	strh	r3, [r5, #48]
.Ltmp480:
	.loc	33 290 33 is_stmt 0     @ /usr/bin/../lib/gcc/arm-linux-gnueabihf/6.3.0/../../../../include/c++/6.3.0/bits/char_traits.h:290:33
	movw	r3, #25924
	mov	r0, #0
	movt	r3, #24940
	mov	r2, #7
.Ltmp481:
	.loc	33 290 33               @ /usr/bin/../lib/gcc/arm-linux-gnueabihf/6.3.0/../../../../include/c++/6.3.0/bits/char_traits.h:290:33
	str	r3, [sp, #200]
.Ltmp482:
	@DEBUG_VALUE: _M_length:__length <- 7
	.loc	31 132 26 is_stmt 1     @ /usr/bin/../lib/gcc/arm-linux-gnueabihf/6.3.0/../../../../include/c++/6.3.0/bits/basic_string.h:132:26
	str	r2, [sp, #196]
.Ltmp483:
	.loc	3 96 17 discriminator 1 @ /root/Bela/projects/Yinghao-final-2/render.cpp:96:17
	vmov.i32	d2, #0x0
	vldr	s0, .LCPI3_7
	vldr	s2, .LCPI3_8
.Ltmp484:
	.loc	33 243 14               @ /usr/bin/../lib/gcc/arm-linux-gnueabihf/6.3.0/../../../../include/c++/6.3.0/bits/char_traits.h:243:14
	strb	r0, [sp, #207]
.Ltmp485:
	.loc	3 96 17 discriminator 1 @ /root/Bela/projects/Yinghao-final-2/render.cpp:96:17
.Ltmp60:
	vmov.f32	s1, s4
	mov	r0, r6
	vmov.f32	s3, s4
	bl	_ZN13GuiController9addSliderENSt7__cxx1112basic_stringIcSt11char_traitsIcESaIcEEEffff
.Ltmp486:
.Ltmp61:
.Ltmp487:
@ BB#97:
	@DEBUG_VALUE: setup:context <- %R4
	.loc	31 136 28               @ /usr/bin/../lib/gcc/arm-linux-gnueabihf/6.3.0/../../../../include/c++/6.3.0/bits/basic_string.h:136:28
	ldr	r0, [sp, #192]
.Ltmp488:
	@DEBUG_VALUE: deallocate:__p <- %R0
	@DEBUG_VALUE: deallocate:__p <- %R0
	mov	r9, r8
.Ltmp489:
	.loc	31 180 6                @ /usr/bin/../lib/gcc/arm-linux-gnueabihf/6.3.0/../../../../include/c++/6.3.0/bits/basic_string.h:180:6
	cmp	r0, r7
	beq	.LBB3_99
.Ltmp490:
@ BB#98:
	@DEBUG_VALUE: deallocate:__p <- %R0
	@DEBUG_VALUE: deallocate:__p <- %R0
	@DEBUG_VALUE: setup:context <- %R4
	.loc	5 110 9                 @ /usr/bin/../lib/gcc/arm-linux-gnueabihf/6.3.0/../../../../include/c++/6.3.0/ext/new_allocator.h:110:9
	bl	_ZdlPv
.Ltmp491:
.LBB3_99:                               @ %_ZNSt7__cxx1112basic_stringIcSt11char_traitsIcESaIcEED2Ev.exit128
	@DEBUG_VALUE: setup:context <- %R4
	add	r0, sp, #168
.Ltmp492:
	@DEBUG_VALUE: _M_construct<const char *>:this <- %R0
	@DEBUG_VALUE: _M_construct_aux<const char *>:this <- %R0
	@DEBUG_VALUE: _M_construct<const char *>:this <- %R0
	@DEBUG_VALUE: _M_local_data:this <- %R0
	.loc	56 215 12               @ /usr/bin/../lib/gcc/arm-linux-gnueabihf/6.3.0/../../../../include/c++/6.3.0/bits/basic_string.tcc:215:12
	mov	r1, #21
.Ltmp493:
	@DEBUG_VALUE: _M_construct<const char *>:__dnew <- 21
	.loc	31 142 51               @ /usr/bin/../lib/gcc/arm-linux-gnueabihf/6.3.0/../../../../include/c++/6.3.0/bits/basic_string.h:142:51
	add	r7, r0, #8
.Ltmp494:
	.loc	31 110 25               @ /usr/bin/../lib/gcc/arm-linux-gnueabihf/6.3.0/../../../../include/c++/6.3.0/bits/basic_string.h:110:25
	str	r7, [sp, #168]
.Ltmp495:
	.loc	56 215 12               @ /usr/bin/../lib/gcc/arm-linux-gnueabihf/6.3.0/../../../../include/c++/6.3.0/bits/basic_string.tcc:215:12
	str	r1, [r11, #-116]
.Ltmp496:
	.loc	56 219 14               @ /usr/bin/../lib/gcc/arm-linux-gnueabihf/6.3.0/../../../../include/c++/6.3.0/bits/basic_string.tcc:219:14
.Ltmp63:
	sub	r1, r11, #116
.Ltmp497:
	@DEBUG_VALUE: _M_construct<const char *>:__dnew <- [%R1+0]
	mov	r2, #0
	mov	r8, #0
	bl	_ZNSt7__cxx1112basic_stringIcSt11char_traitsIcESaIcEE9_M_createERjj
.Ltmp498:
.Ltmp64:
.Ltmp499:
@ BB#100:                               @ %.noexc134
	@DEBUG_VALUE: setup:context <- %R4
	.loc	33 290 33               @ /usr/bin/../lib/gcc/arm-linux-gnueabihf/6.3.0/../../../../include/c++/6.3.0/bits/char_traits.h:290:33
	movw	r1, :lower16:.L.str.37
.Ltmp500:
	.loc	56 220 18               @ /usr/bin/../lib/gcc/arm-linux-gnueabihf/6.3.0/../../../../include/c++/6.3.0/bits/basic_string.tcc:220:18
	ldr	r2, [r11, #-116]
.Ltmp501:
	@DEBUG_VALUE: _M_capacity:__capacity <- %R2
	@DEBUG_VALUE: _M_set_length:__n <- %R2
	@DEBUG_VALUE: _M_length:__length <- %R2
	@DEBUG_VALUE: _M_construct<const char *>:__dnew <- %R2
	.loc	33 290 33               @ /usr/bin/../lib/gcc/arm-linux-gnueabihf/6.3.0/../../../../include/c++/6.3.0/bits/char_traits.h:290:33
	movt	r1, :upper16:.L.str.37
	vld1.64	{d16, d17}, [r1]
	add	r1, r1, #13
.Ltmp502:
	.loc	3 97 17 discriminator 1 @ /root/Bela/projects/Yinghao-final-2/render.cpp:97:17
	vmov.i32	d2, #0x0
.Ltmp503:
	.loc	31 128 26               @ /usr/bin/../lib/gcc/arm-linux-gnueabihf/6.3.0/../../../../include/c++/6.3.0/bits/basic_string.h:128:26
	str	r0, [sp, #168]
.Ltmp504:
	@DEBUG_VALUE: _M_data:__p <- %R0
	.loc	33 290 33               @ /usr/bin/../lib/gcc/arm-linux-gnueabihf/6.3.0/../../../../include/c++/6.3.0/bits/char_traits.h:290:33
	vld1.8	{d18}, [r1]
	add	r1, r0, #13
.Ltmp505:
	.loc	31 160 31               @ /usr/bin/../lib/gcc/arm-linux-gnueabihf/6.3.0/../../../../include/c++/6.3.0/bits/basic_string.h:160:31
	str	r2, [sp, #176]
.Ltmp506:
	@DEBUG_VALUE: _S_copy:__d <- %R0
	@DEBUG_VALUE: _S_copy:__n <- 21
	.loc	33 290 33               @ /usr/bin/../lib/gcc/arm-linux-gnueabihf/6.3.0/../../../../include/c++/6.3.0/bits/char_traits.h:290:33
	vst1.8	{d18}, [r1]
	add	r1, sp, #168
.Ltmp507:
	@DEBUG_VALUE: _M_data:this <- %R1
	@DEBUG_VALUE: _M_length:this <- %R1
	@DEBUG_VALUE: _M_set_length:this <- %R1
	@DEBUG_VALUE: _M_data:this <- %R1
	@DEBUG_VALUE: _M_capacity:this <- %R1
	@DEBUG_VALUE: _M_data:this <- %R1
	vst1.8	{d16, d17}, [r0]
.Ltmp508:
	.loc	31 132 26               @ /usr/bin/../lib/gcc/arm-linux-gnueabihf/6.3.0/../../../../include/c++/6.3.0/bits/basic_string.h:132:26
	str	r2, [sp, #172]
.Ltmp509:
	.loc	31 136 28               @ /usr/bin/../lib/gcc/arm-linux-gnueabihf/6.3.0/../../../../include/c++/6.3.0/bits/basic_string.h:136:28
	ldr	r0, [sp, #168]
.Ltmp510:
	.loc	33 243 14               @ /usr/bin/../lib/gcc/arm-linux-gnueabihf/6.3.0/../../../../include/c++/6.3.0/bits/char_traits.h:243:14
	strb	r8, [r0, r2]
.Ltmp511:
	.loc	3 97 17 discriminator 1 @ /root/Bela/projects/Yinghao-final-2/render.cpp:97:17
.Ltmp66:
	vmov.i32	d0, #0x0
	mov	r0, r6
	vmov.f32	d1, #2.000000e+01
	vmov.f32	s1, s4
	vmov.f32	s3, s4
	bl	_ZN13GuiController9addSliderENSt7__cxx1112basic_stringIcSt11char_traitsIcESaIcEEEffff
.Ltmp512:
.Ltmp67:
.Ltmp513:
	@DEBUG_VALUE: _S_copy:__s <- %R1
@ BB#101:
	@DEBUG_VALUE: _S_copy:__s <- %R1
	@DEBUG_VALUE: setup:context <- %R4
	.loc	31 136 28               @ /usr/bin/../lib/gcc/arm-linux-gnueabihf/6.3.0/../../../../include/c++/6.3.0/bits/basic_string.h:136:28
	ldr	r0, [sp, #168]
.Ltmp514:
	@DEBUG_VALUE: deallocate:__p <- %R0
	@DEBUG_VALUE: deallocate:__p <- %R0
	mov	r8, r9
.Ltmp515:
	.loc	31 180 6                @ /usr/bin/../lib/gcc/arm-linux-gnueabihf/6.3.0/../../../../include/c++/6.3.0/bits/basic_string.h:180:6
	cmp	r0, r7
	beq	.LBB3_103
.Ltmp516:
@ BB#102:
	@DEBUG_VALUE: deallocate:__p <- %R0
	@DEBUG_VALUE: deallocate:__p <- %R0
	@DEBUG_VALUE: _S_copy:__s <- %R1
	@DEBUG_VALUE: setup:context <- %R4
	.loc	5 110 9                 @ /usr/bin/../lib/gcc/arm-linux-gnueabihf/6.3.0/../../../../include/c++/6.3.0/ext/new_allocator.h:110:9
	bl	_ZdlPv
.Ltmp517:
.LBB3_103:                              @ %_ZNSt7__cxx1112basic_stringIcSt11char_traitsIcESaIcEED2Ev.exit136
	@DEBUG_VALUE: setup:context <- %R4
	add	r1, sp, #144
.Ltmp518:
	@DEBUG_VALUE: _M_data:this <- %R1
	@DEBUG_VALUE: _M_length:this <- %R1
	@DEBUG_VALUE: _M_set_length:__n <- 7
	@DEBUG_VALUE: _M_set_length:this <- %R1
	@DEBUG_VALUE: _M_data:this <- %R1
	@DEBUG_VALUE: _M_construct<const char *>:__dnew <- 7
	@DEBUG_VALUE: _M_construct<const char *>:this <- %R1
	@DEBUG_VALUE: _M_construct_aux<const char *>:this <- %R1
	@DEBUG_VALUE: _M_construct<const char *>:this <- %R1
	@DEBUG_VALUE: _S_copy_chars:__p <- %R7
	@DEBUG_VALUE: _S_copy:__d <- %R7
	@DEBUG_VALUE: _M_local_data:this <- %R1
	.loc	33 290 33               @ /usr/bin/../lib/gcc/arm-linux-gnueabihf/6.3.0/../../../../include/c++/6.3.0/bits/char_traits.h:290:33
	mov	r3, #51
.Ltmp519:
	@DEBUG_VALUE: _S_copy:__n <- 7
	.loc	31 142 51               @ /usr/bin/../lib/gcc/arm-linux-gnueabihf/6.3.0/../../../../include/c++/6.3.0/bits/basic_string.h:142:51
	add	r7, r1, #8
.Ltmp520:
	.loc	31 110 25               @ /usr/bin/../lib/gcc/arm-linux-gnueabihf/6.3.0/../../../../include/c++/6.3.0/bits/basic_string.h:110:25
	str	r7, [sp, #144]
.Ltmp521:
	.loc	33 290 33               @ /usr/bin/../lib/gcc/arm-linux-gnueabihf/6.3.0/../../../../include/c++/6.3.0/bits/char_traits.h:290:33
	strb	r3, [sp, #158]
	movw	r3, #24441
	strh	r3, [r5]
.Ltmp522:
	.loc	33 290 33 is_stmt 0     @ /usr/bin/../lib/gcc/arm-linux-gnueabihf/6.3.0/../../../../include/c++/6.3.0/bits/char_traits.h:290:33
	movw	r3, #25924
	mov	r0, #0
	movt	r3, #24940
	mov	r2, #7
.Ltmp523:
	.loc	33 290 33               @ /usr/bin/../lib/gcc/arm-linux-gnueabihf/6.3.0/../../../../include/c++/6.3.0/bits/char_traits.h:290:33
	str	r3, [sp, #152]
.Ltmp524:
	@DEBUG_VALUE: _M_length:__length <- 7
	.loc	31 132 26 is_stmt 1     @ /usr/bin/../lib/gcc/arm-linux-gnueabihf/6.3.0/../../../../include/c++/6.3.0/bits/basic_string.h:132:26
	str	r2, [sp, #148]
.Ltmp525:
	.loc	3 98 17 discriminator 1 @ /root/Bela/projects/Yinghao-final-2/render.cpp:98:17
	vmov.i32	d2, #0x0
	vldr	s0, .LCPI3_7
	vldr	s2, .LCPI3_8
.Ltmp526:
	.loc	33 243 14               @ /usr/bin/../lib/gcc/arm-linux-gnueabihf/6.3.0/../../../../include/c++/6.3.0/bits/char_traits.h:243:14
	strb	r0, [sp, #159]
.Ltmp527:
	.loc	3 98 17 discriminator 1 @ /root/Bela/projects/Yinghao-final-2/render.cpp:98:17
.Ltmp69:
	vmov.f32	s1, s4
	mov	r0, r6
	vmov.f32	s3, s4
	bl	_ZN13GuiController9addSliderENSt7__cxx1112basic_stringIcSt11char_traitsIcESaIcEEEffff
.Ltmp528:
.Ltmp70:
.Ltmp529:
@ BB#104:
	@DEBUG_VALUE: setup:context <- %R4
	.loc	31 136 28               @ /usr/bin/../lib/gcc/arm-linux-gnueabihf/6.3.0/../../../../include/c++/6.3.0/bits/basic_string.h:136:28
	ldr	r0, [sp, #144]
.Ltmp530:
	@DEBUG_VALUE: deallocate:__p <- %R0
	@DEBUG_VALUE: deallocate:__p <- %R0
	.loc	31 180 6                @ /usr/bin/../lib/gcc/arm-linux-gnueabihf/6.3.0/../../../../include/c++/6.3.0/bits/basic_string.h:180:6
	cmp	r0, r7
	beq	.LBB3_106
.Ltmp531:
@ BB#105:
	@DEBUG_VALUE: deallocate:__p <- %R0
	@DEBUG_VALUE: deallocate:__p <- %R0
	@DEBUG_VALUE: setup:context <- %R4
	.loc	5 110 9                 @ /usr/bin/../lib/gcc/arm-linux-gnueabihf/6.3.0/../../../../include/c++/6.3.0/ext/new_allocator.h:110:9
	bl	_ZdlPv
.Ltmp532:
.LBB3_106:                              @ %_ZNSt7__cxx1112basic_stringIcSt11char_traitsIcESaIcEED2Ev.exit144
	@DEBUG_VALUE: setup:context <- %R4
	add	r0, sp, #120
.Ltmp533:
	@DEBUG_VALUE: _M_construct<const char *>:this <- %R0
	@DEBUG_VALUE: _M_construct_aux<const char *>:this <- %R0
	@DEBUG_VALUE: _M_construct<const char *>:this <- %R0
	@DEBUG_VALUE: _M_local_data:this <- %R0
	.loc	56 215 12               @ /usr/bin/../lib/gcc/arm-linux-gnueabihf/6.3.0/../../../../include/c++/6.3.0/bits/basic_string.tcc:215:12
	mov	r1, #21
.Ltmp534:
	@DEBUG_VALUE: _M_construct<const char *>:__dnew <- 21
	.loc	31 142 51               @ /usr/bin/../lib/gcc/arm-linux-gnueabihf/6.3.0/../../../../include/c++/6.3.0/bits/basic_string.h:142:51
	add	r5, r0, #8
.Ltmp535:
	.loc	31 110 25               @ /usr/bin/../lib/gcc/arm-linux-gnueabihf/6.3.0/../../../../include/c++/6.3.0/bits/basic_string.h:110:25
	str	r5, [sp, #120]
.Ltmp536:
	.loc	56 215 12               @ /usr/bin/../lib/gcc/arm-linux-gnueabihf/6.3.0/../../../../include/c++/6.3.0/bits/basic_string.tcc:215:12
	str	r1, [r11, #-112]
.Ltmp537:
	.loc	56 219 14               @ /usr/bin/../lib/gcc/arm-linux-gnueabihf/6.3.0/../../../../include/c++/6.3.0/bits/basic_string.tcc:219:14
.Ltmp72:
	sub	r1, r11, #112
.Ltmp538:
	@DEBUG_VALUE: _M_construct<const char *>:__dnew <- [%R1+0]
	mov	r2, #0
	mov	r7, #0
	bl	_ZNSt7__cxx1112basic_stringIcSt11char_traitsIcESaIcEE9_M_createERjj
.Ltmp539:
.Ltmp73:
.Ltmp540:
@ BB#107:                               @ %.noexc150
	@DEBUG_VALUE: setup:context <- %R4
	.loc	33 290 33               @ /usr/bin/../lib/gcc/arm-linux-gnueabihf/6.3.0/../../../../include/c++/6.3.0/bits/char_traits.h:290:33
	movw	r1, :lower16:.L.str.39
.Ltmp541:
	.loc	56 220 18               @ /usr/bin/../lib/gcc/arm-linux-gnueabihf/6.3.0/../../../../include/c++/6.3.0/bits/basic_string.tcc:220:18
	ldr	r2, [r11, #-112]
.Ltmp542:
	@DEBUG_VALUE: _M_capacity:__capacity <- %R2
	@DEBUG_VALUE: _M_set_length:__n <- %R2
	@DEBUG_VALUE: _M_length:__length <- %R2
	@DEBUG_VALUE: _M_construct<const char *>:__dnew <- %R2
	.loc	33 290 33               @ /usr/bin/../lib/gcc/arm-linux-gnueabihf/6.3.0/../../../../include/c++/6.3.0/bits/char_traits.h:290:33
	movt	r1, :upper16:.L.str.39
	vld1.64	{d16, d17}, [r1]
	add	r1, r1, #13
.Ltmp543:
	.loc	3 99 17 discriminator 1 @ /root/Bela/projects/Yinghao-final-2/render.cpp:99:17
	vmov.i32	d2, #0x0
.Ltmp544:
	.loc	31 128 26               @ /usr/bin/../lib/gcc/arm-linux-gnueabihf/6.3.0/../../../../include/c++/6.3.0/bits/basic_string.h:128:26
	str	r0, [sp, #120]
.Ltmp545:
	@DEBUG_VALUE: _M_data:__p <- %R0
	.loc	33 290 33               @ /usr/bin/../lib/gcc/arm-linux-gnueabihf/6.3.0/../../../../include/c++/6.3.0/bits/char_traits.h:290:33
	vld1.8	{d18}, [r1]
	add	r1, r0, #13
.Ltmp546:
	.loc	31 160 31               @ /usr/bin/../lib/gcc/arm-linux-gnueabihf/6.3.0/../../../../include/c++/6.3.0/bits/basic_string.h:160:31
	str	r2, [sp, #128]
.Ltmp547:
	@DEBUG_VALUE: _S_copy:__d <- %R0
	@DEBUG_VALUE: _S_copy:__n <- 21
	.loc	33 290 33               @ /usr/bin/../lib/gcc/arm-linux-gnueabihf/6.3.0/../../../../include/c++/6.3.0/bits/char_traits.h:290:33
	vst1.8	{d18}, [r1]
	add	r1, sp, #120
.Ltmp548:
	@DEBUG_VALUE: _M_data:this <- %R1
	@DEBUG_VALUE: _M_length:this <- %R1
	@DEBUG_VALUE: _M_set_length:this <- %R1
	@DEBUG_VALUE: _M_data:this <- %R1
	@DEBUG_VALUE: _M_capacity:this <- %R1
	@DEBUG_VALUE: _M_data:this <- %R1
	vst1.8	{d16, d17}, [r0]
.Ltmp549:
	.loc	31 132 26               @ /usr/bin/../lib/gcc/arm-linux-gnueabihf/6.3.0/../../../../include/c++/6.3.0/bits/basic_string.h:132:26
	str	r2, [sp, #124]
.Ltmp550:
	.loc	31 136 28               @ /usr/bin/../lib/gcc/arm-linux-gnueabihf/6.3.0/../../../../include/c++/6.3.0/bits/basic_string.h:136:28
	ldr	r0, [sp, #120]
.Ltmp551:
	.loc	33 243 14               @ /usr/bin/../lib/gcc/arm-linux-gnueabihf/6.3.0/../../../../include/c++/6.3.0/bits/char_traits.h:243:14
	strb	r7, [r0, r2]
.Ltmp552:
	.loc	3 99 17 discriminator 1 @ /root/Bela/projects/Yinghao-final-2/render.cpp:99:17
.Ltmp75:
	vmov.i32	d0, #0x0
	mov	r0, r6
	vmov.f32	d1, #2.000000e+01
	vmov.f32	s1, s4
	vmov.f32	s3, s4
	bl	_ZN13GuiController9addSliderENSt7__cxx1112basic_stringIcSt11char_traitsIcESaIcEEEffff
.Ltmp553:
.Ltmp76:
.Ltmp554:
	@DEBUG_VALUE: _S_copy:__s <- %R1
@ BB#108:
	@DEBUG_VALUE: _S_copy:__s <- %R1
	@DEBUG_VALUE: setup:context <- %R4
	.loc	31 136 28               @ /usr/bin/../lib/gcc/arm-linux-gnueabihf/6.3.0/../../../../include/c++/6.3.0/bits/basic_string.h:136:28
	ldr	r0, [sp, #120]
.Ltmp555:
	@DEBUG_VALUE: deallocate:__p <- %R0
	@DEBUG_VALUE: deallocate:__p <- %R0
	.loc	31 180 6                @ /usr/bin/../lib/gcc/arm-linux-gnueabihf/6.3.0/../../../../include/c++/6.3.0/bits/basic_string.h:180:6
	cmp	r0, r5
	beq	.LBB3_110
.Ltmp556:
@ BB#109:
	@DEBUG_VALUE: deallocate:__p <- %R0
	@DEBUG_VALUE: deallocate:__p <- %R0
	@DEBUG_VALUE: _S_copy:__s <- %R1
	@DEBUG_VALUE: setup:context <- %R4
	.loc	5 110 9                 @ /usr/bin/../lib/gcc/arm-linux-gnueabihf/6.3.0/../../../../include/c++/6.3.0/ext/new_allocator.h:110:9
	bl	_ZdlPv
.Ltmp557:
.LBB3_110:                              @ %_ZNSt7__cxx1112basic_stringIcSt11char_traitsIcESaIcEED2Ev.exit152
	@DEBUG_VALUE: setup:context <- %R4
	add	r1, sp, #96
.Ltmp558:
	@DEBUG_VALUE: _M_data:this <- %R1
	@DEBUG_VALUE: _M_length:this <- %R1
	@DEBUG_VALUE: _M_set_length:__n <- 7
	@DEBUG_VALUE: _M_set_length:this <- %R1
	@DEBUG_VALUE: _M_data:this <- %R1
	@DEBUG_VALUE: _M_construct<const char *>:__dnew <- 7
	@DEBUG_VALUE: _M_construct<const char *>:this <- %R1
	@DEBUG_VALUE: _M_construct_aux<const char *>:this <- %R1
	@DEBUG_VALUE: _M_construct<const char *>:this <- %R1
	@DEBUG_VALUE: _S_copy_chars:__p <- %R5
	@DEBUG_VALUE: _S_copy:__d <- %R5
	@DEBUG_VALUE: _M_local_data:this <- %R1
	.loc	33 290 33               @ /usr/bin/../lib/gcc/arm-linux-gnueabihf/6.3.0/../../../../include/c++/6.3.0/bits/char_traits.h:290:33
	mov	r3, #52
.Ltmp559:
	@DEBUG_VALUE: _S_copy:__n <- 7
	.loc	31 142 51               @ /usr/bin/../lib/gcc/arm-linux-gnueabihf/6.3.0/../../../../include/c++/6.3.0/bits/basic_string.h:142:51
	add	r5, r1, #8
.Ltmp560:
	.loc	31 110 25               @ /usr/bin/../lib/gcc/arm-linux-gnueabihf/6.3.0/../../../../include/c++/6.3.0/bits/basic_string.h:110:25
	str	r5, [sp, #96]
.Ltmp561:
	.loc	33 290 33               @ /usr/bin/../lib/gcc/arm-linux-gnueabihf/6.3.0/../../../../include/c++/6.3.0/bits/char_traits.h:290:33
	strb	r3, [sp, #110]
	movw	r3, #24441
	strh	r3, [sp, #108]
.Ltmp562:
	.loc	33 290 33 is_stmt 0     @ /usr/bin/../lib/gcc/arm-linux-gnueabihf/6.3.0/../../../../include/c++/6.3.0/bits/char_traits.h:290:33
	movw	r3, #25924
	mov	r0, #0
	movt	r3, #24940
	mov	r2, #7
.Ltmp563:
	.loc	33 290 33               @ /usr/bin/../lib/gcc/arm-linux-gnueabihf/6.3.0/../../../../include/c++/6.3.0/bits/char_traits.h:290:33
	str	r3, [sp, #104]
.Ltmp564:
	@DEBUG_VALUE: _M_length:__length <- 7
	.loc	31 132 26 is_stmt 1     @ /usr/bin/../lib/gcc/arm-linux-gnueabihf/6.3.0/../../../../include/c++/6.3.0/bits/basic_string.h:132:26
	str	r2, [sp, #100]
.Ltmp565:
	.loc	3 100 17 discriminator 1 @ /root/Bela/projects/Yinghao-final-2/render.cpp:100:17
	vmov.i32	d2, #0x0
	vldr	s0, .LCPI3_10
	vldr	s2, .LCPI3_11
.Ltmp566:
	.loc	33 243 14               @ /usr/bin/../lib/gcc/arm-linux-gnueabihf/6.3.0/../../../../include/c++/6.3.0/bits/char_traits.h:243:14
	strb	r0, [sp, #111]
.Ltmp567:
	.loc	3 100 17 discriminator 1 @ /root/Bela/projects/Yinghao-final-2/render.cpp:100:17
.Ltmp78:
	vmov.f32	s1, s4
	mov	r0, r6
	vmov.f32	s3, s4
	bl	_ZN13GuiController9addSliderENSt7__cxx1112basic_stringIcSt11char_traitsIcESaIcEEEffff
.Ltmp568:
.Ltmp79:
.Ltmp569:
@ BB#111:
	@DEBUG_VALUE: setup:context <- %R4
	.loc	31 136 28               @ /usr/bin/../lib/gcc/arm-linux-gnueabihf/6.3.0/../../../../include/c++/6.3.0/bits/basic_string.h:136:28
	ldr	r0, [sp, #96]
.Ltmp570:
	@DEBUG_VALUE: deallocate:__p <- %R0
	@DEBUG_VALUE: deallocate:__p <- %R0
	.loc	31 180 6                @ /usr/bin/../lib/gcc/arm-linux-gnueabihf/6.3.0/../../../../include/c++/6.3.0/bits/basic_string.h:180:6
	cmp	r0, r5
	beq	.LBB3_113
.Ltmp571:
@ BB#112:
	@DEBUG_VALUE: deallocate:__p <- %R0
	@DEBUG_VALUE: deallocate:__p <- %R0
	@DEBUG_VALUE: setup:context <- %R4
	.loc	5 110 9                 @ /usr/bin/../lib/gcc/arm-linux-gnueabihf/6.3.0/../../../../include/c++/6.3.0/ext/new_allocator.h:110:9
	bl	_ZdlPv
.Ltmp572:
.LBB3_113:                              @ %_ZNSt7__cxx1112basic_stringIcSt11char_traitsIcESaIcEED2Ev.exit160
	@DEBUG_VALUE: setup:context <- %R4
	add	r0, sp, #72
.Ltmp573:
	@DEBUG_VALUE: _M_construct<const char *>:this <- %R0
	@DEBUG_VALUE: _M_construct_aux<const char *>:this <- %R0
	@DEBUG_VALUE: _M_construct<const char *>:this <- %R0
	@DEBUG_VALUE: _M_local_data:this <- %R0
	.loc	56 215 12               @ /usr/bin/../lib/gcc/arm-linux-gnueabihf/6.3.0/../../../../include/c++/6.3.0/bits/basic_string.tcc:215:12
	mov	r1, #21
.Ltmp574:
	@DEBUG_VALUE: _M_construct<const char *>:__dnew <- 21
	.loc	31 142 51               @ /usr/bin/../lib/gcc/arm-linux-gnueabihf/6.3.0/../../../../include/c++/6.3.0/bits/basic_string.h:142:51
	add	r5, r0, #8
.Ltmp575:
	.loc	31 110 25               @ /usr/bin/../lib/gcc/arm-linux-gnueabihf/6.3.0/../../../../include/c++/6.3.0/bits/basic_string.h:110:25
	str	r5, [sp, #72]
.Ltmp576:
	.loc	56 215 12               @ /usr/bin/../lib/gcc/arm-linux-gnueabihf/6.3.0/../../../../include/c++/6.3.0/bits/basic_string.tcc:215:12
	str	r1, [r11, #-108]
.Ltmp577:
	.loc	56 219 14               @ /usr/bin/../lib/gcc/arm-linux-gnueabihf/6.3.0/../../../../include/c++/6.3.0/bits/basic_string.tcc:219:14
.Ltmp81:
	sub	r1, r11, #108
.Ltmp578:
	@DEBUG_VALUE: _M_construct<const char *>:__dnew <- [%R1+0]
	mov	r2, #0
	mov	r7, #0
	bl	_ZNSt7__cxx1112basic_stringIcSt11char_traitsIcESaIcEE9_M_createERjj
.Ltmp579:
.Ltmp82:
.Ltmp580:
@ BB#114:                               @ %.noexc166
	@DEBUG_VALUE: setup:context <- %R4
	.loc	33 290 33               @ /usr/bin/../lib/gcc/arm-linux-gnueabihf/6.3.0/../../../../include/c++/6.3.0/bits/char_traits.h:290:33
	movw	r1, :lower16:.L.str.41
.Ltmp581:
	.loc	56 220 18               @ /usr/bin/../lib/gcc/arm-linux-gnueabihf/6.3.0/../../../../include/c++/6.3.0/bits/basic_string.tcc:220:18
	ldr	r2, [r11, #-108]
.Ltmp582:
	@DEBUG_VALUE: _M_capacity:__capacity <- %R2
	@DEBUG_VALUE: _M_set_length:__n <- %R2
	@DEBUG_VALUE: _M_length:__length <- %R2
	@DEBUG_VALUE: _M_construct<const char *>:__dnew <- %R2
	.loc	33 290 33               @ /usr/bin/../lib/gcc/arm-linux-gnueabihf/6.3.0/../../../../include/c++/6.3.0/bits/char_traits.h:290:33
	movt	r1, :upper16:.L.str.41
	vld1.64	{d16, d17}, [r1]
	add	r1, r1, #13
.Ltmp583:
	.loc	3 101 17 discriminator 1 @ /root/Bela/projects/Yinghao-final-2/render.cpp:101:17
	vmov.i32	d2, #0x0
.Ltmp584:
	.loc	31 128 26               @ /usr/bin/../lib/gcc/arm-linux-gnueabihf/6.3.0/../../../../include/c++/6.3.0/bits/basic_string.h:128:26
	str	r0, [sp, #72]
.Ltmp585:
	@DEBUG_VALUE: _M_data:__p <- %R0
	.loc	33 290 33               @ /usr/bin/../lib/gcc/arm-linux-gnueabihf/6.3.0/../../../../include/c++/6.3.0/bits/char_traits.h:290:33
	vld1.8	{d18}, [r1]
	add	r1, r0, #13
.Ltmp586:
	.loc	31 160 31               @ /usr/bin/../lib/gcc/arm-linux-gnueabihf/6.3.0/../../../../include/c++/6.3.0/bits/basic_string.h:160:31
	str	r2, [sp, #80]
.Ltmp587:
	@DEBUG_VALUE: _S_copy:__d <- %R0
	@DEBUG_VALUE: _S_copy:__n <- 21
	.loc	33 290 33               @ /usr/bin/../lib/gcc/arm-linux-gnueabihf/6.3.0/../../../../include/c++/6.3.0/bits/char_traits.h:290:33
	vst1.8	{d18}, [r1]
	add	r1, sp, #72
.Ltmp588:
	@DEBUG_VALUE: _M_data:this <- %R1
	@DEBUG_VALUE: _M_length:this <- %R1
	@DEBUG_VALUE: _M_set_length:this <- %R1
	@DEBUG_VALUE: _M_data:this <- %R1
	@DEBUG_VALUE: _M_capacity:this <- %R1
	@DEBUG_VALUE: _M_data:this <- %R1
	vst1.8	{d16, d17}, [r0]
.Ltmp589:
	.loc	31 132 26               @ /usr/bin/../lib/gcc/arm-linux-gnueabihf/6.3.0/../../../../include/c++/6.3.0/bits/basic_string.h:132:26
	str	r2, [sp, #76]
.Ltmp590:
	.loc	31 136 28               @ /usr/bin/../lib/gcc/arm-linux-gnueabihf/6.3.0/../../../../include/c++/6.3.0/bits/basic_string.h:136:28
	ldr	r0, [sp, #72]
.Ltmp591:
	.loc	33 243 14               @ /usr/bin/../lib/gcc/arm-linux-gnueabihf/6.3.0/../../../../include/c++/6.3.0/bits/char_traits.h:243:14
	strb	r7, [r0, r2]
.Ltmp592:
	.loc	3 101 17 discriminator 1 @ /root/Bela/projects/Yinghao-final-2/render.cpp:101:17
.Ltmp84:
	vmov.i32	d0, #0x0
	mov	r0, r6
	vmov.f32	d1, #2.000000e+01
	vmov.f32	s1, s4
	vmov.f32	s3, s4
	bl	_ZN13GuiController9addSliderENSt7__cxx1112basic_stringIcSt11char_traitsIcESaIcEEEffff
.Ltmp593:
.Ltmp85:
.Ltmp594:
	@DEBUG_VALUE: _S_copy:__s <- %R1
@ BB#115:
	@DEBUG_VALUE: _S_copy:__s <- %R1
	@DEBUG_VALUE: setup:context <- %R4
	.loc	31 136 28               @ /usr/bin/../lib/gcc/arm-linux-gnueabihf/6.3.0/../../../../include/c++/6.3.0/bits/basic_string.h:136:28
	ldr	r0, [sp, #72]
.Ltmp595:
	@DEBUG_VALUE: deallocate:__p <- %R0
	@DEBUG_VALUE: deallocate:__p <- %R0
	.loc	31 180 6                @ /usr/bin/../lib/gcc/arm-linux-gnueabihf/6.3.0/../../../../include/c++/6.3.0/bits/basic_string.h:180:6
	cmp	r0, r5
	beq	.LBB3_117
.Ltmp596:
@ BB#116:
	@DEBUG_VALUE: deallocate:__p <- %R0
	@DEBUG_VALUE: deallocate:__p <- %R0
	@DEBUG_VALUE: _S_copy:__s <- %R1
	@DEBUG_VALUE: setup:context <- %R4
	.loc	5 110 9                 @ /usr/bin/../lib/gcc/arm-linux-gnueabihf/6.3.0/../../../../include/c++/6.3.0/ext/new_allocator.h:110:9
	bl	_ZdlPv
.Ltmp597:
.LBB3_117:                              @ %_ZNSt7__cxx1112basic_stringIcSt11char_traitsIcESaIcEED2Ev.exit168
	@DEBUG_VALUE: setup:context <- %R4
	add	r0, sp, #48
.Ltmp598:
	@DEBUG_VALUE: _M_construct<const char *>:this <- %R0
	@DEBUG_VALUE: _M_construct_aux<const char *>:this <- %R0
	@DEBUG_VALUE: _M_construct<const char *>:this <- %R0
	@DEBUG_VALUE: _M_local_data:this <- %R0
	.loc	56 215 12               @ /usr/bin/../lib/gcc/arm-linux-gnueabihf/6.3.0/../../../../include/c++/6.3.0/bits/basic_string.tcc:215:12
	mov	r1, #20
.Ltmp599:
	@DEBUG_VALUE: _M_construct<const char *>:__dnew <- 20
	.loc	31 142 51               @ /usr/bin/../lib/gcc/arm-linux-gnueabihf/6.3.0/../../../../include/c++/6.3.0/bits/basic_string.h:142:51
	add	r5, r0, #8
.Ltmp600:
	.loc	31 110 25               @ /usr/bin/../lib/gcc/arm-linux-gnueabihf/6.3.0/../../../../include/c++/6.3.0/bits/basic_string.h:110:25
	str	r5, [sp, #48]
.Ltmp601:
	.loc	56 215 12               @ /usr/bin/../lib/gcc/arm-linux-gnueabihf/6.3.0/../../../../include/c++/6.3.0/bits/basic_string.tcc:215:12
	str	r1, [sp, #12]
.Ltmp602:
	.loc	56 219 14               @ /usr/bin/../lib/gcc/arm-linux-gnueabihf/6.3.0/../../../../include/c++/6.3.0/bits/basic_string.tcc:219:14
.Ltmp87:
	add	r1, sp, #12
.Ltmp603:
	@DEBUG_VALUE: _M_construct<const char *>:__dnew <- [%R1+0]
	mov	r2, #0
	mov	r7, #0
	bl	_ZNSt7__cxx1112basic_stringIcSt11char_traitsIcESaIcEE9_M_createERjj
.Ltmp604:
.Ltmp88:
.Ltmp605:
@ BB#118:                               @ %.noexc174
	@DEBUG_VALUE: setup:context <- %R4
	.loc	33 290 33               @ /usr/bin/../lib/gcc/arm-linux-gnueabihf/6.3.0/../../../../include/c++/6.3.0/bits/char_traits.h:290:33
	movw	r1, :lower16:.L.str.42
.Ltmp606:
	.loc	56 220 18               @ /usr/bin/../lib/gcc/arm-linux-gnueabihf/6.3.0/../../../../include/c++/6.3.0/bits/basic_string.tcc:220:18
	ldr	r2, [sp, #12]
.Ltmp607:
	@DEBUG_VALUE: _M_capacity:__capacity <- %R2
	@DEBUG_VALUE: _M_set_length:__n <- %R2
	@DEBUG_VALUE: _M_length:__length <- %R2
	@DEBUG_VALUE: _M_construct<const char *>:__dnew <- %R2
	.loc	33 290 33               @ /usr/bin/../lib/gcc/arm-linux-gnueabihf/6.3.0/../../../../include/c++/6.3.0/bits/char_traits.h:290:33
	movt	r1, :upper16:.L.str.42
	vld1.64	{d16, d17}, [r1]
	movw	r1, #25954
.Ltmp608:
	.loc	3 103 17 discriminator 1 @ /root/Bela/projects/Yinghao-final-2/render.cpp:103:17
	vmov.i32	d2, #0x0
.Ltmp609:
	.loc	31 128 26               @ /usr/bin/../lib/gcc/arm-linux-gnueabihf/6.3.0/../../../../include/c++/6.3.0/bits/basic_string.h:128:26
	str	r0, [sp, #48]
.Ltmp610:
	@DEBUG_VALUE: _M_data:__p <- %R0
	.loc	33 290 33               @ /usr/bin/../lib/gcc/arm-linux-gnueabihf/6.3.0/../../../../include/c++/6.3.0/bits/char_traits.h:290:33
	movt	r1, #24948
.Ltmp611:
	.loc	31 160 31               @ /usr/bin/../lib/gcc/arm-linux-gnueabihf/6.3.0/../../../../include/c++/6.3.0/bits/basic_string.h:160:31
	str	r2, [sp, #56]
.Ltmp612:
	@DEBUG_VALUE: _S_copy:__d <- %R0
	@DEBUG_VALUE: _S_copy:__n <- 20
	.loc	33 290 33               @ /usr/bin/../lib/gcc/arm-linux-gnueabihf/6.3.0/../../../../include/c++/6.3.0/bits/char_traits.h:290:33
	vst1.8	{d16, d17}, [r0]!
.Ltmp613:
	str	r1, [r0]
	add	r1, sp, #48
.Ltmp614:
	@DEBUG_VALUE: _M_data:this <- %R1
	@DEBUG_VALUE: _M_length:this <- %R1
	@DEBUG_VALUE: _M_set_length:this <- %R1
	@DEBUG_VALUE: _M_data:this <- %R1
	@DEBUG_VALUE: _M_capacity:this <- %R1
	@DEBUG_VALUE: _M_data:this <- %R1
	.loc	31 132 26               @ /usr/bin/../lib/gcc/arm-linux-gnueabihf/6.3.0/../../../../include/c++/6.3.0/bits/basic_string.h:132:26
	str	r2, [sp, #52]
.Ltmp615:
	.loc	31 136 28               @ /usr/bin/../lib/gcc/arm-linux-gnueabihf/6.3.0/../../../../include/c++/6.3.0/bits/basic_string.h:136:28
	ldr	r0, [sp, #48]
.Ltmp616:
	.loc	3 103 17 discriminator 1 @ /root/Bela/projects/Yinghao-final-2/render.cpp:103:17
	vldr	s2, .LCPI3_3
.Ltmp617:
	.loc	33 243 14               @ /usr/bin/../lib/gcc/arm-linux-gnueabihf/6.3.0/../../../../include/c++/6.3.0/bits/char_traits.h:243:14
	strb	r7, [r0, r2]
.Ltmp618:
	.loc	3 103 17 discriminator 1 @ /root/Bela/projects/Yinghao-final-2/render.cpp:103:17
.Ltmp90:
	vmov.i32	d0, #0x0
	mov	r0, r6
	vmov.f32	s1, s4
	vmov.f32	s3, s4
	bl	_ZN13GuiController9addSliderENSt7__cxx1112basic_stringIcSt11char_traitsIcESaIcEEEffff
.Ltmp619:
.Ltmp91:
.Ltmp620:
	@DEBUG_VALUE: _S_copy:__s <- %R1
@ BB#119:
	@DEBUG_VALUE: _S_copy:__s <- %R1
	@DEBUG_VALUE: setup:context <- %R4
	.loc	31 136 28               @ /usr/bin/../lib/gcc/arm-linux-gnueabihf/6.3.0/../../../../include/c++/6.3.0/bits/basic_string.h:136:28
	ldr	r0, [sp, #48]
.Ltmp621:
	@DEBUG_VALUE: deallocate:__p <- %R0
	@DEBUG_VALUE: deallocate:__p <- %R0
	.loc	31 180 6                @ /usr/bin/../lib/gcc/arm-linux-gnueabihf/6.3.0/../../../../include/c++/6.3.0/bits/basic_string.h:180:6
	cmp	r0, r5
	beq	.LBB3_121
.Ltmp622:
@ BB#120:
	@DEBUG_VALUE: deallocate:__p <- %R0
	@DEBUG_VALUE: deallocate:__p <- %R0
	@DEBUG_VALUE: _S_copy:__s <- %R1
	@DEBUG_VALUE: setup:context <- %R4
	.loc	5 110 9                 @ /usr/bin/../lib/gcc/arm-linux-gnueabihf/6.3.0/../../../../include/c++/6.3.0/ext/new_allocator.h:110:9
	bl	_ZdlPv
.Ltmp623:
.LBB3_121:                              @ %_ZNSt7__cxx1112basic_stringIcSt11char_traitsIcESaIcEED2Ev.exit176
	@DEBUG_VALUE: setup:context <- %R4
	.loc	33 290 33               @ /usr/bin/../lib/gcc/arm-linux-gnueabihf/6.3.0/../../../../include/c++/6.3.0/bits/char_traits.h:290:33
	movw	r0, :lower16:.L.str.43
	add	r1, sp, #24
.Ltmp624:
	@DEBUG_VALUE: _M_data:this <- %R1
	@DEBUG_VALUE: _M_length:this <- %R1
	@DEBUG_VALUE: _M_set_length:__n <- 14
	@DEBUG_VALUE: _M_set_length:this <- %R1
	@DEBUG_VALUE: _M_data:this <- %R1
	@DEBUG_VALUE: _M_construct<const char *>:__dnew <- 14
	@DEBUG_VALUE: _M_construct<const char *>:this <- %R1
	@DEBUG_VALUE: _M_construct_aux<const char *>:this <- %R1
	@DEBUG_VALUE: _M_construct<const char *>:this <- %R1
	@DEBUG_VALUE: _S_copy_chars:__p <- %R5
	@DEBUG_VALUE: _S_copy:__d <- %R5
	@DEBUG_VALUE: _M_local_data:this <- %R1
	movt	r0, :upper16:.L.str.43
	add	r2, r0, #6
.Ltmp625:
	.loc	31 142 51               @ /usr/bin/../lib/gcc/arm-linux-gnueabihf/6.3.0/../../../../include/c++/6.3.0/bits/basic_string.h:142:51
	add	r5, r1, #8
.Ltmp626:
	.loc	33 290 33               @ /usr/bin/../lib/gcc/arm-linux-gnueabihf/6.3.0/../../../../include/c++/6.3.0/bits/char_traits.h:290:33
	vldr	d17, [r0]
	vld1.16	{d16}, [r2]
	add	r2, r1, #14
	mov	r0, #14
	mov	r3, #0
.Ltmp627:
	.loc	31 110 25               @ /usr/bin/../lib/gcc/arm-linux-gnueabihf/6.3.0/../../../../include/c++/6.3.0/bits/basic_string.h:110:25
	str	r5, [sp, #24]
.Ltmp628:
	@DEBUG_VALUE: _S_copy:__n <- 14
	.loc	3 104 17 discriminator 1 @ /root/Bela/projects/Yinghao-final-2/render.cpp:104:17
	vmov.i32	d2, #0x0
.Ltmp629:
	.loc	33 290 33               @ /usr/bin/../lib/gcc/arm-linux-gnueabihf/6.3.0/../../../../include/c++/6.3.0/bits/char_traits.h:290:33
	vst1.16	{d16}, [r2]
	vstr	d17, [sp, #32]
.Ltmp630:
	@DEBUG_VALUE: _M_length:__length <- 14
	.loc	31 132 26               @ /usr/bin/../lib/gcc/arm-linux-gnueabihf/6.3.0/../../../../include/c++/6.3.0/bits/basic_string.h:132:26
	str	r0, [sp, #28]
.Ltmp631:
	.loc	3 104 17 discriminator 1 @ /root/Bela/projects/Yinghao-final-2/render.cpp:104:17
	vldr	s2, .LCPI3_3
.Ltmp632:
	.loc	33 243 14               @ /usr/bin/../lib/gcc/arm-linux-gnueabihf/6.3.0/../../../../include/c++/6.3.0/bits/char_traits.h:243:14
	strb	r3, [sp, #46]
.Ltmp633:
	.loc	3 104 17 discriminator 1 @ /root/Bela/projects/Yinghao-final-2/render.cpp:104:17
.Ltmp93:
	vmov.i32	d0, #0x0
	mov	r0, r6
	vmov.f32	s1, s4
	vmov.f32	s3, s4
	bl	_ZN13GuiController9addSliderENSt7__cxx1112basic_stringIcSt11char_traitsIcESaIcEEEffff
.Ltmp634:
.Ltmp94:
.Ltmp635:
	@DEBUG_VALUE: _S_copy:__s <- %R0
@ BB#122:
	@DEBUG_VALUE: _S_copy:__s <- %R0
	@DEBUG_VALUE: setup:context <- %R4
	.loc	31 136 28               @ /usr/bin/../lib/gcc/arm-linux-gnueabihf/6.3.0/../../../../include/c++/6.3.0/bits/basic_string.h:136:28
	ldr	r0, [sp, #24]
.Ltmp636:
	@DEBUG_VALUE: deallocate:__p <- %R0
	@DEBUG_VALUE: deallocate:__p <- %R0
	.loc	31 180 6                @ /usr/bin/../lib/gcc/arm-linux-gnueabihf/6.3.0/../../../../include/c++/6.3.0/bits/basic_string.h:180:6
	cmp	r0, r5
	beq	.LBB3_124
.Ltmp637:
@ BB#123:
	@DEBUG_VALUE: deallocate:__p <- %R0
	@DEBUG_VALUE: deallocate:__p <- %R0
	@DEBUG_VALUE: setup:context <- %R4
	.loc	5 110 9                 @ /usr/bin/../lib/gcc/arm-linux-gnueabihf/6.3.0/../../../../include/c++/6.3.0/ext/new_allocator.h:110:9
	bl	_ZdlPv
.Ltmp638:
.LBB3_124:                              @ %_ZNSt7__cxx1112basic_stringIcSt11char_traitsIcESaIcEED2Ev.exit184
	@DEBUG_VALUE: setup:context <- %R4
	.loc	9 656 66                @ /usr/bin/../lib/gcc/arm-linux-gnueabihf/6.3.0/../../../../include/c++/6.3.0/bits/stl_vector.h:656:66
	ldm	r8, {r0, r1}
	.loc	9 656 50 is_stmt 0      @ /usr/bin/../lib/gcc/arm-linux-gnueabihf/6.3.0/../../../../include/c++/6.3.0/bits/stl_vector.h:656:50
	sub	r0, r1, r0
.Ltmp639:
	.loc	3 110 34 is_stmt 1      @ /root/Bela/projects/Yinghao-final-2/render.cpp:110:34
	vldr	s0, [r4, #32]
.Ltmp640:
	.loc	31 136 28               @ /usr/bin/../lib/gcc/arm-linux-gnueabihf/6.3.0/../../../../include/c++/6.3.0/bits/basic_string.h:136:28
	ldr	r1, [r10, #36]
.Ltmp641:
	.loc	9 656 50                @ /usr/bin/../lib/gcc/arm-linux-gnueabihf/6.3.0/../../../../include/c++/6.3.0/bits/stl_vector.h:656:50
	asr	r2, r0, #2
.Ltmp642:
	.loc	3 108 5                 @ /root/Bela/projects/Yinghao-final-2/render.cpp:108:5
	movw	r0, :lower16:.L.str.44
	.loc	3 110 8                 @ /root/Bela/projects/Yinghao-final-2/render.cpp:110:8
	vmov	s2, r2
	.loc	3 108 5                 @ /root/Bela/projects/Yinghao-final-2/render.cpp:108:5
	movt	r0, :upper16:.L.str.44
	.loc	3 110 8                 @ /root/Bela/projects/Yinghao-final-2/render.cpp:110:8
	vcvt.f32.u32	d1, d1
	.loc	3 110 23 is_stmt 0      @ /root/Bela/projects/Yinghao-final-2/render.cpp:110:23
	vdiv.f32	s0, s2, s0
	.loc	3 110 8                 @ /root/Bela/projects/Yinghao-final-2/render.cpp:110:8
	vcvt.f64.f32	d16, s0
	.loc	3 108 5 is_stmt 1       @ /root/Bela/projects/Yinghao-final-2/render.cpp:108:5
	vstr	d16, [sp]
	bl	rt_printf
.Ltmp643:
	@DEBUG_VALUE: pinMode:f <- 0
	@DEBUG_VALUE: pinMode:mode <- 0
	@DEBUG_VALUE: pinMode:channel <- 1
	@DEBUG_VALUE: pinMode:frame <- 0
	.loc	29 1546 30 discriminator 1 @ ./include/Bela.h:1546:30
	ldr	r0, [r4, #52]
	.loc	29 1546 2 is_stmt 0 discriminator 1 @ ./include/Bela.h:1546:2
	cmp	r0, #0
	beq	.LBB3_127
.Ltmp644:
@ BB#125:                               @ %.lr.ph.i
	@DEBUG_VALUE: setup:context <- %R4
	.loc	29 1548 13 is_stmt 1    @ ./include/Bela.h:1548:13
	ldr	r0, [r4, #16]
	mov	r1, #0
.Ltmp645:
.LBB3_126:                              @ =>This Inner Loop Header: Depth=1
	.loc	29 1548 24 is_stmt 0    @ ./include/Bela.h:1548:24
	ldr	r2, [r0, r1, lsl #2]
	orr	r2, r2, #2
	str	r2, [r0, r1, lsl #2]
.Ltmp646:
	.loc	29 1546 46 is_stmt 1 discriminator 2 @ ./include/Bela.h:1546:46
	add	r1, r1, #1
.Ltmp647:
	@DEBUG_VALUE: pinMode:f <- %R1
	.loc	29 1546 30 is_stmt 0 discriminator 1 @ ./include/Bela.h:1546:30
	ldr	r2, [r4, #52]
	.loc	29 1546 2 discriminator 1 @ ./include/Bela.h:1546:2
	cmp	r1, r2
	blo	.LBB3_126
.Ltmp648:
.LBB3_127:                              @ %_ZL7pinModeP11BelaContextiii.exit
	.loc	3 116 9 is_stmt 1       @ /root/Bela/projects/Yinghao-final-2/render.cpp:116:9
	movw	r0, :lower16:gScope
	.loc	3 116 27 is_stmt 0      @ /root/Bela/projects/Yinghao-final-2/render.cpp:116:27
	vldr	s0, [r4, #32]
	.loc	3 116 9                 @ /root/Bela/projects/Yinghao-final-2/render.cpp:116:9
	movt	r0, :upper16:gScope
	mov	r1, #1
	bl	_ZN5Scope5setupEjf
	mov	r0, #0
.Ltmp649:
	.loc	9 87 22 is_stmt 1       @ /usr/bin/../lib/gcc/arm-linux-gnueabihf/6.3.0/../../../../include/c++/6.3.0/bits/stl_vector.h:87:22
	str	r0, [sp, #12]
	.loc	9 87 34 is_stmt 0       @ /usr/bin/../lib/gcc/arm-linux-gnueabihf/6.3.0/../../../../include/c++/6.3.0/bits/stl_vector.h:87:34
	str	r0, [sp, #16]
	.loc	9 87 47                 @ /usr/bin/../lib/gcc/arm-linux-gnueabihf/6.3.0/../../../../include/c++/6.3.0/bits/stl_vector.h:87:47
	str	r0, [sp, #20]
.Ltmp650:
	.loc	9 677 4 is_stmt 1 discriminator 1 @ /usr/bin/../lib/gcc/arm-linux-gnueabihf/6.3.0/../../../../include/c++/6.3.0/bits/stl_vector.h:677:4
.Ltmp96:
	add	r0, sp, #12
.Ltmp651:
	@DEBUG_VALUE: size:this <- %R0
	@DEBUG_VALUE: size:this <- %R0
	@DEBUG_VALUE: resize:__new_size <- 1024
	@DEBUG_VALUE: resize:this <- %R0
	@DEBUG_VALUE: setup:wavetableSize <- 1024
	@DEBUG_VALUE: vector:this <- %R0
	@DEBUG_VALUE: setup:wavetable <- [%R0+0]
	mov	r1, #1024
	mov	r5, #1024
	bl	_ZNSt6vectorIfSaIfEE17_M_default_appendEj
.Ltmp652:
.Ltmp97:
.Ltmp653:
@ BB#128:                               @ %_ZNSt6vectorIfSaIfEE6resizeEj.exit187.preheader
	.loc	9 781 32                @ /usr/bin/../lib/gcc/arm-linux-gnueabihf/6.3.0/../../../../include/c++/6.3.0/bits/stl_vector.h:781:32
	ldr	r6, [sp, #12]
	adr	r0, .LCPI3_4
	vld1.64	{d12, d13}, [r0:128]
.Ltmp654:
	.loc	3 124 62                @ /root/Bela/projects/Yinghao-final-2/render.cpp:124:62
	vldr	d11, .LCPI3_5
.LBB3_129:                              @ %vector.body
                                        @ =>This Inner Loop Header: Depth=1
	.loc	3 124 60 is_stmt 0      @ /root/Bela/projects/Yinghao-final-2/render.cpp:124:60
	vcvt.f32.u32	q7, q6
	.loc	3 124 53                @ /root/Bela/projects/Yinghao-final-2/render.cpp:124:53
	vcvt.f64.f32	d16, s28
	.loc	3 124 62                @ /root/Bela/projects/Yinghao-final-2/render.cpp:124:62
	vmul.f64	d0, d16, d11
	.loc	3 124 18                @ /root/Bela/projects/Yinghao-final-2/render.cpp:124:18
	bl	sin
	.loc	3 124 53                @ /root/Bela/projects/Yinghao-final-2/render.cpp:124:53
	vcvt.f64.f32	d16, s29
	.loc	3 124 18                @ /root/Bela/projects/Yinghao-final-2/render.cpp:124:18
	vmov.f64	d8, d0
	.loc	3 124 62                @ /root/Bela/projects/Yinghao-final-2/render.cpp:124:62
	vmul.f64	d0, d16, d11
	.loc	3 124 18                @ /root/Bela/projects/Yinghao-final-2/render.cpp:124:18
	bl	sin
	.loc	3 124 53                @ /root/Bela/projects/Yinghao-final-2/render.cpp:124:53
	vcvt.f64.f32	d16, s30
	.loc	3 124 18                @ /root/Bela/projects/Yinghao-final-2/render.cpp:124:18
	vmov.f64	d9, d0
	.loc	3 124 62                @ /root/Bela/projects/Yinghao-final-2/render.cpp:124:62
	vmul.f64	d0, d16, d11
	.loc	3 124 18                @ /root/Bela/projects/Yinghao-final-2/render.cpp:124:18
	bl	sin
	.loc	3 124 53                @ /root/Bela/projects/Yinghao-final-2/render.cpp:124:53
	vcvt.f64.f32	d16, s31
	.loc	3 124 18                @ /root/Bela/projects/Yinghao-final-2/render.cpp:124:18
	vmov.f64	d10, d0
	.loc	3 124 62                @ /root/Bela/projects/Yinghao-final-2/render.cpp:124:62
	vmul.f64	d0, d16, d11
	.loc	3 124 18                @ /root/Bela/projects/Yinghao-final-2/render.cpp:124:18
	bl	sin
	vcvt.f32.f64	s3, d0
.Ltmp655:
	.loc	3 123 2 is_stmt 1 discriminator 1 @ /root/Bela/projects/Yinghao-final-2/render.cpp:123:2
	subs	r5, r5, #4
.Ltmp656:
	.loc	9 781 41                @ /usr/bin/../lib/gcc/arm-linux-gnueabihf/6.3.0/../../../../include/c++/6.3.0/bits/stl_vector.h:781:41
	vmov.32	r0, d12[0]
.Ltmp657:
	.loc	3 123 2 discriminator 1 @ /root/Bela/projects/Yinghao-final-2/render.cpp:123:2
	vmov.i32	q8, #0x4
.Ltmp658:
	.loc	3 124 18                @ /root/Bela/projects/Yinghao-final-2/render.cpp:124:18
	vcvt.f32.f64	s2, d10
	vcvt.f32.f64	s1, d9
	vcvt.f32.f64	s0, d8
.Ltmp659:
	.loc	9 781 41                @ /usr/bin/../lib/gcc/arm-linux-gnueabihf/6.3.0/../../../../include/c++/6.3.0/bits/stl_vector.h:781:41
	add	r0, r6, r0, lsl #2
.Ltmp660:
	.loc	3 123 2 discriminator 1 @ /root/Bela/projects/Yinghao-final-2/render.cpp:123:2
	vadd.i32	q6, q6, q8
.Ltmp661:
	.loc	3 124 16                @ /root/Bela/projects/Yinghao-final-2/render.cpp:124:16
	vst1.32	{d0, d1}, [r0]
.Ltmp662:
	.loc	3 123 2 discriminator 1 @ /root/Bela/projects/Yinghao-final-2/render.cpp:123:2
	bne	.LBB3_129
.Ltmp663:
@ BB#130:                               @ %middle.block
	.loc	3 127 33                @ /root/Bela/projects/Yinghao-final-2/render.cpp:127:33
	vldr	s0, [r4, #32]
	.loc	3 127 18 is_stmt 0      @ /root/Bela/projects/Yinghao-final-2/render.cpp:127:18
.Ltmp98:
	movw	r0, :lower16:gSineOscillator
	add	r1, sp, #12
	movt	r0, :upper16:gSineOscillator
	mov	r2, #1
	bl	_ZN9Wavetable5setupEfRSt6vectorIfSaIfEEb
.Ltmp99:
@ BB#131:
.Ltmp664:
	.loc	9 160 37 is_stmt 1      @ /usr/bin/../lib/gcc/arm-linux-gnueabihf/6.3.0/../../../../include/c++/6.3.0/bits/stl_vector.h:160:37
	ldr	r0, [sp, #12]
.Ltmp665:
	@DEBUG_VALUE: _M_deallocate:__p <- %R0
	@DEBUG_VALUE: deallocate:__p <- %R0
	@DEBUG_VALUE: deallocate:__p <- %R0
	.loc	9 177 6                 @ /usr/bin/../lib/gcc/arm-linux-gnueabihf/6.3.0/../../../../include/c++/6.3.0/bits/stl_vector.h:177:6
	cmp	r0, #0
	beq	.LBB3_133
.Ltmp666:
@ BB#132:
	@DEBUG_VALUE: deallocate:__p <- %R0
	@DEBUG_VALUE: deallocate:__p <- %R0
	@DEBUG_VALUE: _M_deallocate:__p <- %R0
	.loc	5 110 9                 @ /usr/bin/../lib/gcc/arm-linux-gnueabihf/6.3.0/../../../../include/c++/6.3.0/ext/new_allocator.h:110:9
	bl	_ZdlPv
.Ltmp667:
.LBB3_133:                              @ %_ZNSt6vectorIfSaIfEED2Ev.exit
	mov	r0, #1
.LBB3_134:
	.loc	3 130 1 discriminator 30 @ /root/Bela/projects/Yinghao-final-2/render.cpp:130:1
	sub	sp, r11, #96
	vpop	{d8, d9, d10, d11, d12, d13, d14, d15}
	add	sp, sp, #4
	pop	{r4, r5, r6, r7, r8, r9, r10, r11, pc}
.LBB3_135:
.Ltmp668:
	@DEBUG_VALUE: _S_copy:__n <- %R7
	@DEBUG_VALUE: assign:__c2 <- %R6
	@DEBUG_VALUE: _S_copy:__s <- %R6
	@DEBUG_VALUE: _S_copy_chars:__k1 <- %R6
	@DEBUG_VALUE: _M_construct<const char *>:__beg <- %R6
	@DEBUG_VALUE: _M_construct_aux<const char *>:__beg <- %R6
	@DEBUG_VALUE: _M_construct<const char *>:__beg <- %R6
	@DEBUG_VALUE: length:__s <- %R6
	@DEBUG_VALUE: basic_string:__s <- %R6
	@DEBUG_VALUE: setup:context <- %R4
.Ltmp35:
	b	.LBB3_156
.Ltmp669:
.LBB3_136:
	@DEBUG_VALUE: _S_copy:__s <- %R0
	@DEBUG_VALUE: setup:context <- %R4
.Ltmp95:
	mov	r4, r0
.Ltmp670:
	.loc	31 136 28               @ /usr/bin/../lib/gcc/arm-linux-gnueabihf/6.3.0/../../../../include/c++/6.3.0/bits/basic_string.h:136:28
	ldr	r0, [sp, #24]
.Ltmp671:
	b	.LBB3_160
.Ltmp672:
.LBB3_137:
	@DEBUG_VALUE: _S_copy:__s <- %R1
	@DEBUG_VALUE: setup:context <- %R4
.Ltmp92:
	mov	r4, r0
.Ltmp673:
	.loc	31 136 28 is_stmt 0     @ /usr/bin/../lib/gcc/arm-linux-gnueabihf/6.3.0/../../../../include/c++/6.3.0/bits/basic_string.h:136:28
	ldr	r0, [sp, #48]
	b	.LBB3_160
.Ltmp674:
.LBB3_138:
	@DEBUG_VALUE: setup:context <- %R4
.Ltmp89:
	b	.LBB3_156
.Ltmp675:
.LBB3_139:
	@DEBUG_VALUE: _S_copy:__s <- %R1
	@DEBUG_VALUE: setup:context <- %R4
.Ltmp86:
	mov	r4, r0
.Ltmp676:
	.loc	31 136 28               @ /usr/bin/../lib/gcc/arm-linux-gnueabihf/6.3.0/../../../../include/c++/6.3.0/bits/basic_string.h:136:28
	ldr	r0, [sp, #72]
	b	.LBB3_160
.Ltmp677:
.LBB3_140:
	@DEBUG_VALUE: setup:context <- %R4
.Ltmp83:
	b	.LBB3_156
.Ltmp678:
.LBB3_141:
	@DEBUG_VALUE: setup:context <- %R4
.Ltmp80:
	mov	r4, r0
.Ltmp679:
	.loc	31 136 28               @ /usr/bin/../lib/gcc/arm-linux-gnueabihf/6.3.0/../../../../include/c++/6.3.0/bits/basic_string.h:136:28
	ldr	r0, [sp, #96]
	b	.LBB3_160
.Ltmp680:
.LBB3_142:
	@DEBUG_VALUE: _S_copy:__s <- %R1
	@DEBUG_VALUE: setup:context <- %R4
.Ltmp77:
	mov	r4, r0
.Ltmp681:
	.loc	31 136 28               @ /usr/bin/../lib/gcc/arm-linux-gnueabihf/6.3.0/../../../../include/c++/6.3.0/bits/basic_string.h:136:28
	ldr	r0, [sp, #120]
	b	.LBB3_160
.Ltmp682:
.LBB3_143:
	@DEBUG_VALUE: setup:context <- %R4
.Ltmp74:
	b	.LBB3_156
.Ltmp683:
.LBB3_144:
	@DEBUG_VALUE: setup:context <- %R4
.Ltmp71:
	mov	r4, r0
.Ltmp684:
	.loc	31 136 28               @ /usr/bin/../lib/gcc/arm-linux-gnueabihf/6.3.0/../../../../include/c++/6.3.0/bits/basic_string.h:136:28
	ldr	r0, [sp, #144]
	b	.LBB3_149
.Ltmp685:
.LBB3_145:
	@DEBUG_VALUE: _S_copy:__s <- %R1
	@DEBUG_VALUE: setup:context <- %R4
.Ltmp68:
	mov	r4, r0
.Ltmp686:
	.loc	31 136 28               @ /usr/bin/../lib/gcc/arm-linux-gnueabihf/6.3.0/../../../../include/c++/6.3.0/bits/basic_string.h:136:28
	ldr	r0, [sp, #168]
	b	.LBB3_149
.Ltmp687:
.LBB3_146:
	@DEBUG_VALUE: setup:context <- %R4
.Ltmp65:
	b	.LBB3_156
.Ltmp688:
.LBB3_147:
	@DEBUG_VALUE: setup:context <- %R4
.Ltmp62:
	mov	r4, r0
.Ltmp689:
	.loc	31 136 28               @ /usr/bin/../lib/gcc/arm-linux-gnueabihf/6.3.0/../../../../include/c++/6.3.0/bits/basic_string.h:136:28
	ldr	r0, [sp, #192]
	b	.LBB3_149
.Ltmp690:
.LBB3_148:
	@DEBUG_VALUE: _S_copy:__s <- %R1
	@DEBUG_VALUE: setup:context <- %R4
.Ltmp59:
	mov	r4, r0
.Ltmp691:
	.loc	31 136 28               @ /usr/bin/../lib/gcc/arm-linux-gnueabihf/6.3.0/../../../../include/c++/6.3.0/bits/basic_string.h:136:28
	ldr	r0, [sp, #216]
.Ltmp692:
.LBB3_149:
	@DEBUG_VALUE: deallocate:__p <- %R0
	@DEBUG_VALUE: deallocate:__p <- %R0
	.loc	31 180 6 is_stmt 1      @ /usr/bin/../lib/gcc/arm-linux-gnueabihf/6.3.0/../../../../include/c++/6.3.0/bits/basic_string.h:180:6
	cmp	r0, r7
	beq	.LBB3_162
	b	.LBB3_165
.Ltmp693:
.LBB3_150:
	@DEBUG_VALUE: setup:context <- %R4
.Ltmp56:
	b	.LBB3_156
.Ltmp694:
.LBB3_151:
	@DEBUG_VALUE: _S_copy:__s <- %R2
	@DEBUG_VALUE: _S_copy:__n <- %R7
	@DEBUG_VALUE: setup:context <- %R4
.Ltmp53:
	mov	r4, r0
.Ltmp695:
	.loc	31 136 28               @ /usr/bin/../lib/gcc/arm-linux-gnueabihf/6.3.0/../../../../include/c++/6.3.0/bits/basic_string.h:136:28
	ldr	r0, [sp, #240]
	b	.LBB3_160
.Ltmp696:
.LBB3_152:
	@DEBUG_VALUE: _S_copy:__n <- %R7
	@DEBUG_VALUE: setup:context <- %R4
.Ltmp50:
	mov	r4, r0
.Ltmp697:
	.loc	31 136 28 is_stmt 0     @ /usr/bin/../lib/gcc/arm-linux-gnueabihf/6.3.0/../../../../include/c++/6.3.0/bits/basic_string.h:136:28
	ldr	r0, [r11, #-248]
	b	.LBB3_160
.Ltmp698:
.LBB3_153:
	@DEBUG_VALUE: _S_copy:__n <- %R7
	@DEBUG_VALUE: setup:context <- %R4
.Ltmp47:
	mov	r4, r0
.Ltmp699:
	.loc	31 136 28               @ /usr/bin/../lib/gcc/arm-linux-gnueabihf/6.3.0/../../../../include/c++/6.3.0/bits/basic_string.h:136:28
	ldr	r0, [r11, #-224]
	b	.LBB3_160
.Ltmp700:
.LBB3_154:
	@DEBUG_VALUE: _S_copy:__s <- %R2
	@DEBUG_VALUE: _S_copy:__n <- %R7
	@DEBUG_VALUE: setup:context <- %R4
.Ltmp44:
	mov	r4, r0
.Ltmp701:
	.loc	31 136 28               @ /usr/bin/../lib/gcc/arm-linux-gnueabihf/6.3.0/../../../../include/c++/6.3.0/bits/basic_string.h:136:28
	ldr	r0, [r11, #-200]
	b	.LBB3_160
.Ltmp702:
.LBB3_155:
	@DEBUG_VALUE: _S_copy:__n <- %R7
	@DEBUG_VALUE: setup:context <- %R4
.Ltmp41:
.Ltmp703:
.LBB3_156:                              @ %_ZNSt7__cxx1112basic_stringIcSt11char_traitsIcESaIcEED2Ev.exit177
	@DEBUG_VALUE: setup:context <- %R4
	mov	r4, r0
.Ltmp704:
	b	.LBB3_162
.LBB3_157:
.Ltmp705:
	@DEBUG_VALUE: _S_copy:__n <- %R7
	@DEBUG_VALUE: setup:context <- %R4
.Ltmp38:
	mov	r4, r0
.Ltmp706:
	.loc	31 136 28               @ /usr/bin/../lib/gcc/arm-linux-gnueabihf/6.3.0/../../../../include/c++/6.3.0/bits/basic_string.h:136:28
	ldr	r0, [r11, #-176]
.Ltmp707:
	@DEBUG_VALUE: deallocate:__p <- %R0
	@DEBUG_VALUE: deallocate:__p <- %R0
	.loc	31 180 6 is_stmt 1      @ /usr/bin/../lib/gcc/arm-linux-gnueabihf/6.3.0/../../../../include/c++/6.3.0/bits/basic_string.h:180:6
	cmp	r0, r6
	beq	.LBB3_159
.Ltmp708:
@ BB#158:
	@DEBUG_VALUE: deallocate:__p <- %R0
	@DEBUG_VALUE: deallocate:__p <- %R0
	@DEBUG_VALUE: _S_copy:__n <- %R7
	.loc	5 110 9                 @ /usr/bin/../lib/gcc/arm-linux-gnueabihf/6.3.0/../../../../include/c++/6.3.0/ext/new_allocator.h:110:9
	bl	_ZdlPv
.Ltmp709:
.LBB3_159:                              @ %_ZNSt7__cxx1112basic_stringIcSt11char_traitsIcESaIcEED2Ev.exit185
	@DEBUG_VALUE: _S_copy:__n <- %R7
	.loc	31 136 28               @ /usr/bin/../lib/gcc/arm-linux-gnueabihf/6.3.0/../../../../include/c++/6.3.0/bits/basic_string.h:136:28
	ldr	r0, [r11, #-152]
.Ltmp710:
.LBB3_160:                              @ %_ZNSt7__cxx1112basic_stringIcSt11char_traitsIcESaIcEED2Ev.exit185
	@DEBUG_VALUE: deallocate:__p <- %R0
	@DEBUG_VALUE: deallocate:__p <- %R0
	.loc	31 180 6                @ /usr/bin/../lib/gcc/arm-linux-gnueabihf/6.3.0/../../../../include/c++/6.3.0/bits/basic_string.h:180:6
	cmp	r0, r5
	beq	.LBB3_162
	b	.LBB3_165
.Ltmp711:
.LBB3_161:
.Ltmp100:
	mov	r4, r0
.Ltmp712:
	.loc	9 160 37                @ /usr/bin/../lib/gcc/arm-linux-gnueabihf/6.3.0/../../../../include/c++/6.3.0/bits/stl_vector.h:160:37
	ldr	r0, [sp, #12]
.Ltmp713:
	@DEBUG_VALUE: _M_deallocate:__p <- %R0
	@DEBUG_VALUE: deallocate:__p <- %R0
	@DEBUG_VALUE: deallocate:__p <- %R0
	.loc	9 177 6                 @ /usr/bin/../lib/gcc/arm-linux-gnueabihf/6.3.0/../../../../include/c++/6.3.0/bits/stl_vector.h:177:6
	cmp	r0, #0
	bne	.LBB3_165
.Ltmp714:
.LBB3_162:                              @ %_ZNSt7__cxx1112basic_stringIcSt11char_traitsIcESaIcEED2Ev.exit177
	mov	r0, r4
	mov	lr, pc
	b	_Unwind_Resume
	.p2align	2
@ BB#163:
.LCPI3_10:
	.long	1008981770              @ float 0.00999999977
	.p2align	2
@ BB#164:
.LCPI3_11:
	.long	1028443341              @ float 0.0500000007
.LBB3_165:
.Ltmp715:
	.loc	5 110 9                 @ /usr/bin/../lib/gcc/arm-linux-gnueabihf/6.3.0/../../../../include/c++/6.3.0/ext/new_allocator.h:110:9
	bl	_ZdlPv
	mov	r0, r4
	mov	lr, pc
	b	_Unwind_Resume
.Ltmp716:
	.p2align	4
@ BB#166:
.LCPI3_4:
	.long	0                       @ 0x0
	.long	1                       @ 0x1
	.long	2                       @ 0x2
	.long	3                       @ 0x3
.LCPI3_5:
	.long	1413754136              @ double 0.0061359231515425647
	.long	1064903163
.LCPI3_3:
	.long	1064514355              @ float 0.949999988
.Lfunc_end3:
	.size	setup, .Lfunc_end3-setup
	.cfi_endproc
	.globl	__gxx_personality_v0
	.personality __gxx_personality_v0
	.handlerdata
	.p2align	2
GCC_except_table3:
.Lexception0:
	.byte	255                     @ @LPStart Encoding = omit
	.byte	0                       @ @TType Encoding = absptr
	.asciz	"\357\202"              @ @TType base offset
	.byte	3                       @ Call site Encoding = udata4
	.ascii	"\354\002"              @ Call site table length
	.long	.Lfunc_begin3-.Lfunc_begin3 @ >> Call Site 1 <<
	.long	.Ltmp33-.Lfunc_begin3   @   Call between .Lfunc_begin3 and .Ltmp33
	.long	0                       @     has no landing pad
	.byte	0                       @   On action: cleanup
	.long	.Ltmp33-.Lfunc_begin3   @ >> Call Site 2 <<
	.long	.Ltmp34-.Ltmp33         @   Call between .Ltmp33 and .Ltmp34
	.long	.Ltmp35-.Lfunc_begin3   @     jumps to .Ltmp35
	.byte	0                       @   On action: cleanup
	.long	.Ltmp34-.Lfunc_begin3   @ >> Call Site 3 <<
	.long	.Ltmp36-.Ltmp34         @   Call between .Ltmp34 and .Ltmp36
	.long	0                       @     has no landing pad
	.byte	0                       @   On action: cleanup
	.long	.Ltmp36-.Lfunc_begin3   @ >> Call Site 4 <<
	.long	.Ltmp37-.Ltmp36         @   Call between .Ltmp36 and .Ltmp37
	.long	.Ltmp38-.Lfunc_begin3   @     jumps to .Ltmp38
	.byte	0                       @   On action: cleanup
	.long	.Ltmp39-.Lfunc_begin3   @ >> Call Site 5 <<
	.long	.Ltmp40-.Ltmp39         @   Call between .Ltmp39 and .Ltmp40
	.long	.Ltmp41-.Lfunc_begin3   @     jumps to .Ltmp41
	.byte	0                       @   On action: cleanup
	.long	.Ltmp42-.Lfunc_begin3   @ >> Call Site 6 <<
	.long	.Ltmp43-.Ltmp42         @   Call between .Ltmp42 and .Ltmp43
	.long	.Ltmp44-.Lfunc_begin3   @     jumps to .Ltmp44
	.byte	0                       @   On action: cleanup
	.long	.Ltmp45-.Lfunc_begin3   @ >> Call Site 7 <<
	.long	.Ltmp46-.Ltmp45         @   Call between .Ltmp45 and .Ltmp46
	.long	.Ltmp47-.Lfunc_begin3   @     jumps to .Ltmp47
	.byte	0                       @   On action: cleanup
	.long	.Ltmp48-.Lfunc_begin3   @ >> Call Site 8 <<
	.long	.Ltmp49-.Ltmp48         @   Call between .Ltmp48 and .Ltmp49
	.long	.Ltmp50-.Lfunc_begin3   @     jumps to .Ltmp50
	.byte	0                       @   On action: cleanup
	.long	.Ltmp51-.Lfunc_begin3   @ >> Call Site 9 <<
	.long	.Ltmp52-.Ltmp51         @   Call between .Ltmp51 and .Ltmp52
	.long	.Ltmp53-.Lfunc_begin3   @     jumps to .Ltmp53
	.byte	0                       @   On action: cleanup
	.long	.Ltmp54-.Lfunc_begin3   @ >> Call Site 10 <<
	.long	.Ltmp55-.Ltmp54         @   Call between .Ltmp54 and .Ltmp55
	.long	.Ltmp56-.Lfunc_begin3   @     jumps to .Ltmp56
	.byte	0                       @   On action: cleanup
	.long	.Ltmp57-.Lfunc_begin3   @ >> Call Site 11 <<
	.long	.Ltmp58-.Ltmp57         @   Call between .Ltmp57 and .Ltmp58
	.long	.Ltmp59-.Lfunc_begin3   @     jumps to .Ltmp59
	.byte	0                       @   On action: cleanup
	.long	.Ltmp60-.Lfunc_begin3   @ >> Call Site 12 <<
	.long	.Ltmp61-.Ltmp60         @   Call between .Ltmp60 and .Ltmp61
	.long	.Ltmp62-.Lfunc_begin3   @     jumps to .Ltmp62
	.byte	0                       @   On action: cleanup
	.long	.Ltmp63-.Lfunc_begin3   @ >> Call Site 13 <<
	.long	.Ltmp64-.Ltmp63         @   Call between .Ltmp63 and .Ltmp64
	.long	.Ltmp65-.Lfunc_begin3   @     jumps to .Ltmp65
	.byte	0                       @   On action: cleanup
	.long	.Ltmp66-.Lfunc_begin3   @ >> Call Site 14 <<
	.long	.Ltmp67-.Ltmp66         @   Call between .Ltmp66 and .Ltmp67
	.long	.Ltmp68-.Lfunc_begin3   @     jumps to .Ltmp68
	.byte	0                       @   On action: cleanup
	.long	.Ltmp69-.Lfunc_begin3   @ >> Call Site 15 <<
	.long	.Ltmp70-.Ltmp69         @   Call between .Ltmp69 and .Ltmp70
	.long	.Ltmp71-.Lfunc_begin3   @     jumps to .Ltmp71
	.byte	0                       @   On action: cleanup
	.long	.Ltmp72-.Lfunc_begin3   @ >> Call Site 16 <<
	.long	.Ltmp73-.Ltmp72         @   Call between .Ltmp72 and .Ltmp73
	.long	.Ltmp74-.Lfunc_begin3   @     jumps to .Ltmp74
	.byte	0                       @   On action: cleanup
	.long	.Ltmp75-.Lfunc_begin3   @ >> Call Site 17 <<
	.long	.Ltmp76-.Ltmp75         @   Call between .Ltmp75 and .Ltmp76
	.long	.Ltmp77-.Lfunc_begin3   @     jumps to .Ltmp77
	.byte	0                       @   On action: cleanup
	.long	.Ltmp78-.Lfunc_begin3   @ >> Call Site 18 <<
	.long	.Ltmp79-.Ltmp78         @   Call between .Ltmp78 and .Ltmp79
	.long	.Ltmp80-.Lfunc_begin3   @     jumps to .Ltmp80
	.byte	0                       @   On action: cleanup
	.long	.Ltmp81-.Lfunc_begin3   @ >> Call Site 19 <<
	.long	.Ltmp82-.Ltmp81         @   Call between .Ltmp81 and .Ltmp82
	.long	.Ltmp83-.Lfunc_begin3   @     jumps to .Ltmp83
	.byte	0                       @   On action: cleanup
	.long	.Ltmp84-.Lfunc_begin3   @ >> Call Site 20 <<
	.long	.Ltmp85-.Ltmp84         @   Call between .Ltmp84 and .Ltmp85
	.long	.Ltmp86-.Lfunc_begin3   @     jumps to .Ltmp86
	.byte	0                       @   On action: cleanup
	.long	.Ltmp87-.Lfunc_begin3   @ >> Call Site 21 <<
	.long	.Ltmp88-.Ltmp87         @   Call between .Ltmp87 and .Ltmp88
	.long	.Ltmp89-.Lfunc_begin3   @     jumps to .Ltmp89
	.byte	0                       @   On action: cleanup
	.long	.Ltmp90-.Lfunc_begin3   @ >> Call Site 22 <<
	.long	.Ltmp91-.Ltmp90         @   Call between .Ltmp90 and .Ltmp91
	.long	.Ltmp92-.Lfunc_begin3   @     jumps to .Ltmp92
	.byte	0                       @   On action: cleanup
	.long	.Ltmp93-.Lfunc_begin3   @ >> Call Site 23 <<
	.long	.Ltmp94-.Ltmp93         @   Call between .Ltmp93 and .Ltmp94
	.long	.Ltmp95-.Lfunc_begin3   @     jumps to .Ltmp95
	.byte	0                       @   On action: cleanup
	.long	.Ltmp94-.Lfunc_begin3   @ >> Call Site 24 <<
	.long	.Ltmp96-.Ltmp94         @   Call between .Ltmp94 and .Ltmp96
	.long	0                       @     has no landing pad
	.byte	0                       @   On action: cleanup
	.long	.Ltmp96-.Lfunc_begin3   @ >> Call Site 25 <<
	.long	.Ltmp97-.Ltmp96         @   Call between .Ltmp96 and .Ltmp97
	.long	.Ltmp100-.Lfunc_begin3  @     jumps to .Ltmp100
	.byte	0                       @   On action: cleanup
	.long	.Ltmp97-.Lfunc_begin3   @ >> Call Site 26 <<
	.long	.Ltmp98-.Ltmp97         @   Call between .Ltmp97 and .Ltmp98
	.long	0                       @     has no landing pad
	.byte	0                       @   On action: cleanup
	.long	.Ltmp98-.Lfunc_begin3   @ >> Call Site 27 <<
	.long	.Ltmp99-.Ltmp98         @   Call between .Ltmp98 and .Ltmp99
	.long	.Ltmp100-.Lfunc_begin3  @     jumps to .Ltmp100
	.byte	0                       @   On action: cleanup
	.long	.Ltmp99-.Lfunc_begin3   @ >> Call Site 28 <<
	.long	.Lfunc_end3-.Ltmp99     @   Call between .Ltmp99 and .Lfunc_end3
	.long	0                       @     has no landing pad
	.byte	0                       @   On action: cleanup
	.p2align	2
	.fnend

	.globl	render
	.p2align	3
	.type	render,%function
render:                                 @ @render
.Lfunc_begin4:
	.loc	3 133 0                 @ /root/Bela/projects/Yinghao-final-2/render.cpp:133:0
	.fnstart
	.cfi_startproc
@ BB#0:
	.save	{r4, r5, r6, r7, r8, r9, r10, r11, lr}
	push	{r4, r5, r6, r7, r8, r9, r10, r11, lr}
.Ltmp717:
	.cfi_def_cfa_offset 36
.Ltmp718:
	.cfi_offset lr, -4
.Ltmp719:
	.cfi_offset r11, -8
.Ltmp720:
	.cfi_offset r10, -12
.Ltmp721:
	.cfi_offset r9, -16
.Ltmp722:
	.cfi_offset r8, -20
.Ltmp723:
	.cfi_offset r7, -24
.Ltmp724:
	.cfi_offset r6, -28
.Ltmp725:
	.cfi_offset r5, -32
.Ltmp726:
	.cfi_offset r4, -36
	.setfp	r11, sp, #28
	add	r11, sp, #28
.Ltmp727:
	.cfi_def_cfa r11, 8
	.pad	#4
	sub	sp, sp, #4
	.vsave	{d8, d9, d10, d11, d12, d13, d14, d15}
	vpush	{d8, d9, d10, d11, d12, d13, d14, d15}
.Ltmp728:
	.cfi_offset d15, -48
.Ltmp729:
	.cfi_offset d14, -56
.Ltmp730:
	.cfi_offset d13, -64
.Ltmp731:
	.cfi_offset d12, -72
.Ltmp732:
	.cfi_offset d11, -80
.Ltmp733:
	.cfi_offset d10, -88
.Ltmp734:
	.cfi_offset d9, -96
.Ltmp735:
	.cfi_offset d8, -104
	.pad	#32
	sub	sp, sp, #32
	@DEBUG_VALUE: render:context <- %R0
	@DEBUG_VALUE: render:userData <- %R1
	mov	r4, r0
.Ltmp736:
	@DEBUG_VALUE: render:context <- %R4
	.loc	3 138 40 prologue_end discriminator 1 @ /root/Bela/projects/Yinghao-final-2/render.cpp:138:40
	movw	r0, :lower16:.L_MergedGlobals.4
	movt	r0, :upper16:.L_MergedGlobals.4
	add	r5, r0, #60
	mov	r1, #0
.Ltmp737:
	mov	r0, r5
	bl	_ZN13GuiController14getSliderValueEi
                                        @ kill: %S0<def> %S0<kill> %D0<def>
.Ltmp738:
	@DEBUG_VALUE: render:float_delay <- %S0
	.loc	3 139 37                @ /root/Bela/projects/Yinghao-final-2/render.cpp:139:37
	vldr	s2, [r4, #32]
	.loc	3 139 11 is_stmt 0      @ /root/Bela/projects/Yinghao-final-2/render.cpp:139:11
	movw	r10, :lower16:.L_MergedGlobals
	movt	r10, :upper16:.L_MergedGlobals
	.loc	3 139 25                @ /root/Bela/projects/Yinghao-final-2/render.cpp:139:25
	vmul.f32	d16, d1, d0
	.loc	3 139 13                @ /root/Bela/projects/Yinghao-final-2/render.cpp:139:13
	vcvt.u32.f32	d0, d16
.Ltmp739:
	vmov	r0, s0
	.loc	3 139 11                @ /root/Bela/projects/Yinghao-final-2/render.cpp:139:11
	str	r0, [r10, #20]
	.loc	3 140 20 is_stmt 1      @ /root/Bela/projects/Yinghao-final-2/render.cpp:140:20
	ldr	r1, [r10, #16]
.Ltmp740:
	.loc	9 656 66                @ /usr/bin/../lib/gcc/arm-linux-gnueabihf/6.3.0/../../../../include/c++/6.3.0/bits/stl_vector.h:656:66
	ldr	r2, [r10, #52]
	.loc	9 656 40 is_stmt 0      @ /usr/bin/../lib/gcc/arm-linux-gnueabihf/6.3.0/../../../../include/c++/6.3.0/bits/stl_vector.h:656:40
	ldr	r3, [r10, #56]
.Ltmp741:
	.loc	3 140 33 is_stmt 1      @ /root/Bela/projects/Yinghao-final-2/render.cpp:140:33
	sub	r0, r1, r0
.Ltmp742:
	.loc	9 656 50                @ /usr/bin/../lib/gcc/arm-linux-gnueabihf/6.3.0/../../../../include/c++/6.3.0/bits/stl_vector.h:656:50
	sub	r1, r3, r2
.Ltmp743:
	.loc	3 140 41                @ /root/Bela/projects/Yinghao-final-2/render.cpp:140:41
	add	r0, r0, r1, asr #2
.Ltmp744:
	.loc	9 656 50                @ /usr/bin/../lib/gcc/arm-linux-gnueabihf/6.3.0/../../../../include/c++/6.3.0/bits/stl_vector.h:656:50
	asr	r1, r1, #2
.Ltmp745:
	.loc	3 140 70                @ /root/Bela/projects/Yinghao-final-2/render.cpp:140:70
	bl	__aeabi_uidivmod
	.loc	3 140 17 is_stmt 0      @ /root/Bela/projects/Yinghao-final-2/render.cpp:140:17
	str	r1, [r10]
	.loc	3 141 37 is_stmt 1 discriminator 1 @ /root/Bela/projects/Yinghao-final-2/render.cpp:141:37
	mov	r0, r5
	mov	r1, #1
	bl	_ZN13GuiController14getSliderValueEi
	.loc	3 142 27 discriminator 1 @ /root/Bela/projects/Yinghao-final-2/render.cpp:142:27
	mov	r0, r5
	mov	r1, #2
	.loc	3 141 37 discriminator 1 @ /root/Bela/projects/Yinghao-final-2/render.cpp:141:37
	vorr	d8, d0, d0
.Ltmp746:
	@DEBUG_VALUE: render:feadback <- %S16
	.loc	3 142 27 discriminator 1 @ /root/Bela/projects/Yinghao-final-2/render.cpp:142:27
	bl	_ZN13GuiController14getSliderValueEi
	.loc	3 143 30 discriminator 1 @ /root/Bela/projects/Yinghao-final-2/render.cpp:143:30
	mov	r0, r5
	mov	r1, #3
	.loc	3 142 27 discriminator 1 @ /root/Bela/projects/Yinghao-final-2/render.cpp:142:27
	vorr	d9, d0, d0
.Ltmp747:
	@DEBUG_VALUE: render:b <- %S18
	.loc	3 143 30 discriminator 1 @ /root/Bela/projects/Yinghao-final-2/render.cpp:143:30
	bl	_ZN13GuiController14getSliderValueEi
	.loc	3 144 40 discriminator 1 @ /root/Bela/projects/Yinghao-final-2/render.cpp:144:40
	mov	r0, r5
	mov	r1, #4
	.loc	3 143 30 discriminator 1 @ /root/Bela/projects/Yinghao-final-2/render.cpp:143:30
	vmov.f32	s24, s0
.Ltmp748:
	@DEBUG_VALUE: render:freq <- %S24
	.loc	3 144 40 discriminator 1 @ /root/Bela/projects/Yinghao-final-2/render.cpp:144:40
	bl	_ZN13GuiController14getSliderValueEi
                                        @ kill: %S0<def> %S0<kill> %D0<def>
.Ltmp749:
	@DEBUG_VALUE: render:float_delay_2 <- %S0
	.loc	3 145 38                @ /root/Bela/projects/Yinghao-final-2/render.cpp:145:38
	vldr	s2, [r4, #32]
	.loc	3 145 26 is_stmt 0      @ /root/Bela/projects/Yinghao-final-2/render.cpp:145:26
	vmul.f32	d16, d1, d0
	.loc	3 145 12                @ /root/Bela/projects/Yinghao-final-2/render.cpp:145:12
	vcvt.u32.f32	d0, d16
.Ltmp750:
	vmov	r0, s0
	.loc	3 145 10                @ /root/Bela/projects/Yinghao-final-2/render.cpp:145:10
	str	r0, [r10, #24]
	.loc	3 146 22 is_stmt 1      @ /root/Bela/projects/Yinghao-final-2/render.cpp:146:22
	ldr	r1, [r10, #16]
.Ltmp751:
	.loc	9 656 66                @ /usr/bin/../lib/gcc/arm-linux-gnueabihf/6.3.0/../../../../include/c++/6.3.0/bits/stl_vector.h:656:66
	ldr	r2, [r10, #52]
	.loc	9 656 40 is_stmt 0      @ /usr/bin/../lib/gcc/arm-linux-gnueabihf/6.3.0/../../../../include/c++/6.3.0/bits/stl_vector.h:656:40
	ldr	r3, [r10, #56]
.Ltmp752:
	.loc	3 146 35 is_stmt 1      @ /root/Bela/projects/Yinghao-final-2/render.cpp:146:35
	sub	r0, r1, r0
.Ltmp753:
	.loc	9 656 50                @ /usr/bin/../lib/gcc/arm-linux-gnueabihf/6.3.0/../../../../include/c++/6.3.0/bits/stl_vector.h:656:50
	sub	r1, r3, r2
.Ltmp754:
	.loc	3 146 45                @ /root/Bela/projects/Yinghao-final-2/render.cpp:146:45
	add	r0, r0, r1, asr #2
.Ltmp755:
	.loc	9 656 50                @ /usr/bin/../lib/gcc/arm-linux-gnueabihf/6.3.0/../../../../include/c++/6.3.0/bits/stl_vector.h:656:50
	asr	r1, r1, #2
.Ltmp756:
	.loc	3 146 74                @ /root/Bela/projects/Yinghao-final-2/render.cpp:146:74
	bl	__aeabi_uidivmod
	.loc	3 146 19 is_stmt 0      @ /root/Bela/projects/Yinghao-final-2/render.cpp:146:19
	str	r1, [r10, #4]
	.loc	3 147 32 is_stmt 1 discriminator 1 @ /root/Bela/projects/Yinghao-final-2/render.cpp:147:32
	mov	r0, r5
	mov	r1, #5
	bl	_ZN13GuiController14getSliderValueEi
	.loc	3 148 40 discriminator 1 @ /root/Bela/projects/Yinghao-final-2/render.cpp:148:40
	mov	r0, r5
	mov	r1, #6
	.loc	3 147 32 discriminator 1 @ /root/Bela/projects/Yinghao-final-2/render.cpp:147:32
	vmov.f32	s26, s0
.Ltmp757:
	@DEBUG_VALUE: render:freq_2 <- %S26
	.loc	3 148 40 discriminator 1 @ /root/Bela/projects/Yinghao-final-2/render.cpp:148:40
	bl	_ZN13GuiController14getSliderValueEi
                                        @ kill: %S0<def> %S0<kill> %D0<def>
.Ltmp758:
	@DEBUG_VALUE: render:float_delay_3 <- %S0
	.loc	3 149 38                @ /root/Bela/projects/Yinghao-final-2/render.cpp:149:38
	vldr	s2, [r4, #32]
	.loc	3 149 26 is_stmt 0      @ /root/Bela/projects/Yinghao-final-2/render.cpp:149:26
	vmul.f32	d16, d1, d0
	.loc	3 149 12                @ /root/Bela/projects/Yinghao-final-2/render.cpp:149:12
	vcvt.u32.f32	d0, d16
.Ltmp759:
	vmov	r0, s0
	.loc	3 149 10                @ /root/Bela/projects/Yinghao-final-2/render.cpp:149:10
	str	r0, [r10, #28]
	.loc	3 150 22 is_stmt 1      @ /root/Bela/projects/Yinghao-final-2/render.cpp:150:22
	ldr	r1, [r10, #16]
.Ltmp760:
	.loc	9 656 66                @ /usr/bin/../lib/gcc/arm-linux-gnueabihf/6.3.0/../../../../include/c++/6.3.0/bits/stl_vector.h:656:66
	ldr	r2, [r10, #52]
	.loc	9 656 40 is_stmt 0      @ /usr/bin/../lib/gcc/arm-linux-gnueabihf/6.3.0/../../../../include/c++/6.3.0/bits/stl_vector.h:656:40
	ldr	r3, [r10, #56]
.Ltmp761:
	.loc	3 150 35 is_stmt 1      @ /root/Bela/projects/Yinghao-final-2/render.cpp:150:35
	sub	r0, r1, r0
.Ltmp762:
	.loc	9 656 50                @ /usr/bin/../lib/gcc/arm-linux-gnueabihf/6.3.0/../../../../include/c++/6.3.0/bits/stl_vector.h:656:50
	sub	r1, r3, r2
.Ltmp763:
	.loc	3 150 45                @ /root/Bela/projects/Yinghao-final-2/render.cpp:150:45
	add	r0, r0, r1, asr #2
.Ltmp764:
	.loc	9 656 50                @ /usr/bin/../lib/gcc/arm-linux-gnueabihf/6.3.0/../../../../include/c++/6.3.0/bits/stl_vector.h:656:50
	asr	r1, r1, #2
.Ltmp765:
	.loc	3 150 74                @ /root/Bela/projects/Yinghao-final-2/render.cpp:150:74
	bl	__aeabi_uidivmod
	.loc	3 150 19 is_stmt 0      @ /root/Bela/projects/Yinghao-final-2/render.cpp:150:19
	str	r1, [r10, #8]
	.loc	3 151 32 is_stmt 1 discriminator 1 @ /root/Bela/projects/Yinghao-final-2/render.cpp:151:32
	mov	r0, r5
	mov	r1, #7
	bl	_ZN13GuiController14getSliderValueEi
	.loc	3 152 40 discriminator 1 @ /root/Bela/projects/Yinghao-final-2/render.cpp:152:40
	mov	r0, r5
	mov	r1, #8
	.loc	3 151 32 discriminator 1 @ /root/Bela/projects/Yinghao-final-2/render.cpp:151:32
	vmov.f32	s28, s0
.Ltmp766:
	@DEBUG_VALUE: render:freq_3 <- %S28
	.loc	3 152 40 discriminator 1 @ /root/Bela/projects/Yinghao-final-2/render.cpp:152:40
	bl	_ZN13GuiController14getSliderValueEi
                                        @ kill: %S0<def> %S0<kill> %D0<def>
.Ltmp767:
	@DEBUG_VALUE: render:float_delay_4 <- %S0
	.loc	3 153 38                @ /root/Bela/projects/Yinghao-final-2/render.cpp:153:38
	vldr	s2, [r4, #32]
	.loc	3 153 26 is_stmt 0      @ /root/Bela/projects/Yinghao-final-2/render.cpp:153:26
	vmul.f32	d16, d1, d0
	.loc	3 153 12                @ /root/Bela/projects/Yinghao-final-2/render.cpp:153:12
	vcvt.u32.f32	d0, d16
.Ltmp768:
	vmov	r0, s0
	.loc	3 153 10                @ /root/Bela/projects/Yinghao-final-2/render.cpp:153:10
	str	r0, [r10, #32]
	.loc	3 154 22 is_stmt 1      @ /root/Bela/projects/Yinghao-final-2/render.cpp:154:22
	ldr	r1, [r10, #16]
.Ltmp769:
	.loc	9 656 66                @ /usr/bin/../lib/gcc/arm-linux-gnueabihf/6.3.0/../../../../include/c++/6.3.0/bits/stl_vector.h:656:66
	ldr	r2, [r10, #52]
	.loc	9 656 40 is_stmt 0      @ /usr/bin/../lib/gcc/arm-linux-gnueabihf/6.3.0/../../../../include/c++/6.3.0/bits/stl_vector.h:656:40
	ldr	r3, [r10, #56]
.Ltmp770:
	.loc	3 154 35 is_stmt 1      @ /root/Bela/projects/Yinghao-final-2/render.cpp:154:35
	sub	r0, r1, r0
.Ltmp771:
	.loc	9 656 50                @ /usr/bin/../lib/gcc/arm-linux-gnueabihf/6.3.0/../../../../include/c++/6.3.0/bits/stl_vector.h:656:50
	sub	r1, r3, r2
.Ltmp772:
	.loc	3 154 45                @ /root/Bela/projects/Yinghao-final-2/render.cpp:154:45
	add	r0, r0, r1, asr #2
.Ltmp773:
	.loc	9 656 50                @ /usr/bin/../lib/gcc/arm-linux-gnueabihf/6.3.0/../../../../include/c++/6.3.0/bits/stl_vector.h:656:50
	asr	r1, r1, #2
.Ltmp774:
	.loc	3 154 74                @ /root/Bela/projects/Yinghao-final-2/render.cpp:154:74
	bl	__aeabi_uidivmod
	.loc	3 154 19 is_stmt 0      @ /root/Bela/projects/Yinghao-final-2/render.cpp:154:19
	str	r1, [r10, #12]
	.loc	3 155 32 is_stmt 1 discriminator 1 @ /root/Bela/projects/Yinghao-final-2/render.cpp:155:32
	mov	r0, r5
	mov	r1, #9
	bl	_ZN13GuiController14getSliderValueEi
	.loc	3 156 30 discriminator 1 @ /root/Bela/projects/Yinghao-final-2/render.cpp:156:30
	mov	r0, r5
	mov	r1, #10
	.loc	3 155 32 discriminator 1 @ /root/Bela/projects/Yinghao-final-2/render.cpp:155:32
	vmov.f32	s30, s0
.Ltmp775:
	@DEBUG_VALUE: render:freq_4 <- %S30
	.loc	3 156 30 discriminator 1 @ /root/Bela/projects/Yinghao-final-2/render.cpp:156:30
	bl	_ZN13GuiController14getSliderValueEi
                                        @ kill: %S0<def> %S0<kill> %D0<def>
.Ltmp776:
	@DEBUG_VALUE: render:beta <- [%SP+16]
	.loc	3 157 27 discriminator 1 @ /root/Bela/projects/Yinghao-final-2/render.cpp:157:27
	mov	r0, r5
	mov	r1, #11
	vstr	d0, [sp, #16]           @ 8-byte Spill
	bl	_ZN13GuiController14getSliderValueEi
.Ltmp777:
                                        @ kill: %S0<def> %S0<kill> %D0<def>
.Ltmp778:
	@DEBUG_VALUE: render:c <- [%SP+0]
	.loc	3 160 18                @ /root/Bela/projects/Yinghao-final-2/render.cpp:160:18
	movw	r0, :lower16:gSineOscillator
	movt	r0, :upper16:gSineOscillator
	vstr	d0, [sp]                @ 8-byte Spill
	vmov.f32	s0, s24
	bl	_ZN9Wavetable12setFrequencyEf
.Ltmp779:
	.loc	3 161 7                 @ /root/Bela/projects/Yinghao-final-2/render.cpp:161:7
	vmov.f32	s0, s26
	movw	r0, :lower16:sin2
	movt	r0, :upper16:sin2
	bl	_ZN9Wavetable12setFrequencyEf
	.loc	3 162 7                 @ /root/Bela/projects/Yinghao-final-2/render.cpp:162:7
	vmov.f32	s0, s28
	movw	r0, :lower16:sin3
	movt	r0, :upper16:sin3
	bl	_ZN9Wavetable12setFrequencyEf
	.loc	3 163 7                 @ /root/Bela/projects/Yinghao-final-2/render.cpp:163:7
	vmov.f32	s0, s30
	movw	r0, :lower16:sin4
	movt	r0, :upper16:sin4
	bl	_ZN9Wavetable12setFrequencyEf
.Ltmp780:
	@DEBUG_VALUE: n <- 0
	.loc	3 165 42 discriminator 1 @ /root/Bela/projects/Yinghao-final-2/render.cpp:165:42
	ldr	r0, [r4, #20]
	.loc	3 165 5 is_stmt 0 discriminator 1 @ /root/Bela/projects/Yinghao-final-2/render.cpp:165:5
	cmp	r0, #0
	beq	.LBB4_8
.Ltmp781:
@ BB#1:                                 @ %.lr.ph
	@DEBUG_VALUE: render:freq_4 <- %S30
	@DEBUG_VALUE: render:freq_3 <- %S28
	@DEBUG_VALUE: render:freq_2 <- %S26
	@DEBUG_VALUE: render:freq <- %S24
	@DEBUG_VALUE: render:b <- %S18
	@DEBUG_VALUE: render:feadback <- %S16
	@DEBUG_VALUE: render:context <- %R4
	.loc	3 188 42 is_stmt 1      @ /root/Bela/projects/Yinghao-final-2/render.cpp:188:42
	vmov.f32	d0, #1.000000e+00
.Ltmp782:
	.loc	9 781 32                @ /usr/bin/../lib/gcc/arm-linux-gnueabihf/6.3.0/../../../../include/c++/6.3.0/bits/stl_vector.h:781:32
	movw	r5, :lower16:.L_MergedGlobals.3
.Ltmp783:
	.loc	3 178 23                @ /root/Bela/projects/Yinghao-final-2/render.cpp:178:23
	vldr	d11, .LCPI4_1
.Ltmp784:
	.loc	9 781 32                @ /usr/bin/../lib/gcc/arm-linux-gnueabihf/6.3.0/../../../../include/c++/6.3.0/bits/stl_vector.h:781:32
	movt	r5, :upper16:.L_MergedGlobals.3
.Ltmp785:
	.loc	3 188 42                @ /root/Bela/projects/Yinghao-final-2/render.cpp:188:42
	vadd.f32	d1, d9, d0
	mov	r8, #0
.Ltmp786:
	.loc	3 165 5 discriminator 1 @ /root/Bela/projects/Yinghao-final-2/render.cpp:165:5
	str	r4, [sp, #12]           @ 4-byte Spill
.Ltmp787:
	.loc	3 188 39                @ /root/Bela/projects/Yinghao-final-2/render.cpp:188:39
	vdiv.f32	s20, s0, s2
	b	.LBB4_3
.Ltmp788:
	.p2align	3
@ BB#2:
.LCPI4_1:
	.long	3435973837              @ double 0.90000000000000002
	.long	1072483532
.LBB4_3:                                @ =>This Inner Loop Header: Depth=1
	.loc	3 166 28 discriminator 1 @ /root/Bela/projects/Yinghao-final-2/render.cpp:166:28
	movw	r0, :lower16:gPlayer
	movt	r0, :upper16:gPlayer
	bl	_ZN14MonoFilePlayer7processEv
	ldr	r0, [r4, #16]
	vorr	d12, d0, d0
.Ltmp789:
	@DEBUG_VALUE: digitalRead:channel <- 1
	@DEBUG_VALUE: in <- %S24
	@DEBUG_VALUE: out <- 0.000000e+00
	.loc	3 171 29 discriminator 1 @ /root/Bela/projects/Yinghao-final-2/render.cpp:171:29
	ldr	r1, [r10, #36]
.Ltmp790:
	.loc	29 1515 12              @ ./include/Bela.h:1515:12
	ldr	r0, [r0, r8, lsl #2]
.Ltmp791:
	.loc	3 171 26                @ /root/Bela/projects/Yinghao-final-2/render.cpp:171:26
	cmp	r1, #1
.Ltmp792:
	.loc	29 1515 56              @ ./include/Bela.h:1515:56
	ubfx	r4, r0, #17, #1
.Ltmp793:
	@DEBUG_VALUE: status <- %R4
	cmpeq	r4, #0
	bne	.LBB4_5
.Ltmp794:
@ BB#4:                                 @   in Loop: Header=BB4_3 Depth=1
	@DEBUG_VALUE: status <- %R4
	@DEBUG_VALUE: in <- %S24
	.loc	3 172 26                @ /root/Bela/projects/Yinghao-final-2/render.cpp:172:26
	movw	r0, :lower16:_ZZ6renderE9playReveb
	movt	r0, :upper16:_ZZ6renderE9playReveb
	mov	r1, r0
	ldrb	r0, [r1]
	.loc	3 172 23 is_stmt 0      @ /root/Bela/projects/Yinghao-final-2/render.cpp:172:23
	eor	r0, r0, #1
	strb	r0, [r1]
	.loc	3 173 43 is_stmt 1      @ /root/Bela/projects/Yinghao-final-2/render.cpp:173:43
	uxtb	r1, r0
	.loc	3 173 13 is_stmt 0      @ /root/Bela/projects/Yinghao-final-2/render.cpp:173:13
	movw	r0, :lower16:.L.str.45
	movt	r0, :upper16:.L.str.45
	bl	rt_printf
.Ltmp795:
.LBB4_5:                                @   in Loop: Header=BB4_3 Depth=1
	@DEBUG_VALUE: status <- %R4
	@DEBUG_VALUE: in <- %S24
	.loc	3 178 41 is_stmt 1 discriminator 1 @ /root/Bela/projects/Yinghao-final-2/render.cpp:178:41
	movw	r0, :lower16:gSineOscillator
	.loc	3 175 27                @ /root/Bela/projects/Yinghao-final-2/render.cpp:175:27
	str	r4, [r10, #36]
	.loc	3 178 41 discriminator 1 @ /root/Bela/projects/Yinghao-final-2/render.cpp:178:41
	movt	r0, :upper16:gSineOscillator
	bl	_ZN9Wavetable7processEv
	.loc	3 179 32 discriminator 1 @ /root/Bela/projects/Yinghao-final-2/render.cpp:179:32
	movw	r0, :lower16:sin2
	.loc	3 178 41 discriminator 1 @ /root/Bela/projects/Yinghao-final-2/render.cpp:178:41
	vmov.f32	s30, s0
	.loc	3 179 32 discriminator 1 @ /root/Bela/projects/Yinghao-final-2/render.cpp:179:32
	movt	r0, :upper16:sin2
	bl	_ZN9Wavetable7processEv
	.loc	3 180 32 discriminator 1 @ /root/Bela/projects/Yinghao-final-2/render.cpp:180:32
	movw	r0, :lower16:sin3
	.loc	3 179 32 discriminator 1 @ /root/Bela/projects/Yinghao-final-2/render.cpp:179:32
	vmov.f32	s28, s0
	.loc	3 180 32 discriminator 1 @ /root/Bela/projects/Yinghao-final-2/render.cpp:180:32
	movt	r0, :upper16:sin3
	bl	_ZN9Wavetable7processEv
	.loc	3 181 32 discriminator 1 @ /root/Bela/projects/Yinghao-final-2/render.cpp:181:32
	movw	r0, :lower16:sin4
	.loc	3 180 32 discriminator 1 @ /root/Bela/projects/Yinghao-final-2/render.cpp:180:32
	vmov.f32	s26, s0
	.loc	3 181 32 discriminator 1 @ /root/Bela/projects/Yinghao-final-2/render.cpp:181:32
	movt	r0, :upper16:sin4
	bl	_ZN9Wavetable7processEv
	.loc	3 184 42                @ /root/Bela/projects/Yinghao-final-2/render.cpp:184:42
	ldr	r2, [r10, #16]
.Ltmp796:
	@DEBUG_VALUE: operator[]:__n <- %R2
	@DEBUG_VALUE: operator[]:__n <- %R2
	@DEBUG_VALUE: operator[]:__n <- %R2
	@DEBUG_VALUE: operator[]:__n <- %R2
	@DEBUG_VALUE: operator[]:__n <- %R2
	@DEBUG_VALUE: operator[]:__n <- %R2
	@DEBUG_VALUE: operator[]:__n <- %R2
	@DEBUG_VALUE: operator[]:__n <- %R2
	@DEBUG_VALUE: operator[]:__n <- %R2
	@DEBUG_VALUE: operator[]:__n <- %R2
	@DEBUG_VALUE: operator[]:__n <- %R2
	@DEBUG_VALUE: operator[]:__n <- %R2
	@DEBUG_VALUE: operator[]:__n <- %R2
	@DEBUG_VALUE: operator[]:__n <- %R2
	@DEBUG_VALUE: operator[]:__n <- %R2
	@DEBUG_VALUE: operator[]:__n <- %R2
	@DEBUG_VALUE: operator[]:__n <- %R2
	@DEBUG_VALUE: operator[]:__n <- %R2
	mvn	r1, #3
.Ltmp797:
	.loc	9 781 32                @ /usr/bin/../lib/gcc/arm-linux-gnueabihf/6.3.0/../../../../include/c++/6.3.0/bits/stl_vector.h:781:32
	ldr	r0, [r10, #52]
.Ltmp798:
	.loc	9 781 32 is_stmt 0      @ /usr/bin/../lib/gcc/arm-linux-gnueabihf/6.3.0/../../../../include/c++/6.3.0/bits/stl_vector.h:781:32
	ldr	lr, [r5, #48]
.Ltmp799:
	.loc	9 781 41                @ /usr/bin/../lib/gcc/arm-linux-gnueabihf/6.3.0/../../../../include/c++/6.3.0/bits/stl_vector.h:781:41
	add	r4, r1, r2, lsl #2
.Ltmp800:
	.loc	9 781 32                @ /usr/bin/../lib/gcc/arm-linux-gnueabihf/6.3.0/../../../../include/c++/6.3.0/bits/stl_vector.h:781:32
	ldr	r3, [r5, #108]
.Ltmp801:
	.loc	9 781 41                @ /usr/bin/../lib/gcc/arm-linux-gnueabihf/6.3.0/../../../../include/c++/6.3.0/bits/stl_vector.h:781:41
	add	r9, r0, r4
.Ltmp802:
	.loc	9 781 41                @ /usr/bin/../lib/gcc/arm-linux-gnueabihf/6.3.0/../../../../include/c++/6.3.0/bits/stl_vector.h:781:41
	add	r6, lr, r4
	str	r3, [sp, #28]           @ 4-byte Spill
.Ltmp803:
	.loc	9 781 41                @ /usr/bin/../lib/gcc/arm-linux-gnueabihf/6.3.0/../../../../include/c++/6.3.0/bits/stl_vector.h:781:41
	add	r1, r3, r4
.Ltmp804:
	.loc	9 781 32                @ /usr/bin/../lib/gcc/arm-linux-gnueabihf/6.3.0/../../../../include/c++/6.3.0/bits/stl_vector.h:781:32
	ldr	r12, [r10, #112]
.Ltmp805:
	.loc	3 184 23 is_stmt 1      @ /root/Bela/projects/Yinghao-final-2/render.cpp:184:23
	vldr	s2, [r9]
	.loc	3 184 60 is_stmt 0      @ /root/Bela/projects/Yinghao-final-2/render.cpp:184:60
	vldr	s4, [r6]
.Ltmp806:
	.loc	9 781 41 is_stmt 1      @ /usr/bin/../lib/gcc/arm-linux-gnueabihf/6.3.0/../../../../include/c++/6.3.0/bits/stl_vector.h:781:41
	add	r3, r12, r4
.Ltmp807:
	.loc	3 184 20                @ /root/Bela/projects/Yinghao-final-2/render.cpp:184:20
	vldr	d17, [sp, #16]          @ 8-byte Reload
	.loc	3 184 58 is_stmt 0      @ /root/Bela/projects/Yinghao-final-2/render.cpp:184:58
	vadd.f32	d16, d2, d1
	.loc	3 184 91                @ /root/Bela/projects/Yinghao-final-2/render.cpp:184:91
	vldr	s6, [r3]
	.loc	3 184 122               @ /root/Bela/projects/Yinghao-final-2/render.cpp:184:122
	vldr	s2, [r1]
.Ltmp808:
	.loc	9 781 32 is_stmt 1      @ /usr/bin/../lib/gcc/arm-linux-gnueabihf/6.3.0/../../../../include/c++/6.3.0/bits/stl_vector.h:781:32
	ldr	r7, [r10, #40]
.Ltmp809:
	.loc	3 184 89                @ /root/Bela/projects/Yinghao-final-2/render.cpp:184:89
	vadd.f32	d16, d16, d3
.Ltmp810:
	.loc	9 781 41                @ /usr/bin/../lib/gcc/arm-linux-gnueabihf/6.3.0/../../../../include/c++/6.3.0/bits/stl_vector.h:781:41
	add	r1, r7, r2, lsl #2
.Ltmp811:
	.loc	3 184 120               @ /root/Bela/projects/Yinghao-final-2/render.cpp:184:120
	vadd.f32	d16, d16, d1
	.loc	3 184 20 is_stmt 0      @ /root/Bela/projects/Yinghao-final-2/render.cpp:184:20
	vmul.f32	d16, d16, d17
.Ltmp812:
	@DEBUG_VALUE: sum <- undef
	.loc	3 178 25 is_stmt 1      @ /root/Bela/projects/Yinghao-final-2/render.cpp:178:25
	vcvt.f64.f32	d17, s30
	.loc	3 186 40                @ /root/Bela/projects/Yinghao-final-2/render.cpp:186:40
	vadd.f32	d1, d16, d12
	.loc	3 178 23                @ /root/Bela/projects/Yinghao-final-2/render.cpp:178:23
	vmul.f64	d17, d17, d11
	.loc	3 186 35                @ /root/Bela/projects/Yinghao-final-2/render.cpp:186:35
	vstr	s2, [r1]
	.loc	3 187 73                @ /root/Bela/projects/Yinghao-final-2/render.cpp:187:73
	ldr	r7, [r10]
.Ltmp813:
	@DEBUG_VALUE: operator[]:__n <- %R7
	@DEBUG_VALUE: operator[]:__n <- %R7
	.loc	9 781 32                @ /usr/bin/../lib/gcc/arm-linux-gnueabihf/6.3.0/../../../../include/c++/6.3.0/bits/stl_vector.h:781:32
	ldr	r3, [r10, #64]
.Ltmp814:
	@DEBUG_VALUE: operator[]:__n <- %R7
	.loc	9 781 41 is_stmt 0      @ /usr/bin/../lib/gcc/arm-linux-gnueabihf/6.3.0/../../../../include/c++/6.3.0/bits/stl_vector.h:781:41
	add	r1, r0, r7, lsl #2
.Ltmp815:
	.loc	9 781 41                @ /usr/bin/../lib/gcc/arm-linux-gnueabihf/6.3.0/../../../../include/c++/6.3.0/bits/stl_vector.h:781:41
	add	r3, r3, r2, lsl #2
.Ltmp816:
	.loc	9 781 41                @ /usr/bin/../lib/gcc/arm-linux-gnueabihf/6.3.0/../../../../include/c++/6.3.0/bits/stl_vector.h:781:41
	add	r0, r0, r2, lsl #2
.Ltmp817:
	.loc	3 187 54 is_stmt 1      @ /root/Bela/projects/Yinghao-final-2/render.cpp:187:54
	vldr	s4, [r1]
	.loc	3 187 52 is_stmt 0      @ /root/Bela/projects/Yinghao-final-2/render.cpp:187:52
	vmul.f32	d16, d2, d8
	.loc	3 187 41                @ /root/Bela/projects/Yinghao-final-2/render.cpp:187:41
	vadd.f32	d2, d16, d12
	.loc	3 187 36                @ /root/Bela/projects/Yinghao-final-2/render.cpp:187:36
	vstr	s4, [r3]
.Ltmp818:
	.loc	9 781 32 is_stmt 1      @ /usr/bin/../lib/gcc/arm-linux-gnueabihf/6.3.0/../../../../include/c++/6.3.0/bits/stl_vector.h:781:32
	ldr	r3, [r10, #88]
	.loc	9 781 41 is_stmt 0      @ /usr/bin/../lib/gcc/arm-linux-gnueabihf/6.3.0/../../../../include/c++/6.3.0/bits/stl_vector.h:781:41
	add	r6, r3, r4
.Ltmp819:
	.loc	3 188 90 is_stmt 1      @ /root/Bela/projects/Yinghao-final-2/render.cpp:188:90
	vldr	s6, [r6]
.Ltmp820:
	.loc	9 781 41                @ /usr/bin/../lib/gcc/arm-linux-gnueabihf/6.3.0/../../../../include/c++/6.3.0/bits/stl_vector.h:781:41
	add	r6, r3, r2, lsl #2
.Ltmp821:
	.loc	3 188 88                @ /root/Bela/projects/Yinghao-final-2/render.cpp:188:88
	vmul.f32	d16, d3, d9
	.loc	3 188 84 is_stmt 0      @ /root/Bela/projects/Yinghao-final-2/render.cpp:188:84
	vadd.f32	d16, d16, d2
	.loc	3 188 47                @ /root/Bela/projects/Yinghao-final-2/render.cpp:188:47
	vmul.f32	d2, d16, d10
	.loc	3 188 36                @ /root/Bela/projects/Yinghao-final-2/render.cpp:188:36
	vstr	s4, [r6]
	.loc	3 189 76 is_stmt 1      @ /root/Bela/projects/Yinghao-final-2/render.cpp:189:76
	vldr	s6, [r1]
.Ltmp822:
	.loc	9 781 41                @ /usr/bin/../lib/gcc/arm-linux-gnueabihf/6.3.0/../../../../include/c++/6.3.0/bits/stl_vector.h:781:41
	add	r1, r3, r7, lsl #2
	vsub.f32	d16, d3, d2
.Ltmp823:
	.loc	3 178 19                @ /root/Bela/projects/Yinghao-final-2/render.cpp:178:19
	vcvt.f32.f64	s4, d17
.Ltmp824:
	@DEBUG_VALUE: a <- %S4
	vmul.f32	d16, d16, d2
	.loc	3 189 38                @ /root/Bela/projects/Yinghao-final-2/render.cpp:189:38
	vldr	s4, [r1]
.Ltmp825:
	.loc	3 179 27                @ /root/Bela/projects/Yinghao-final-2/render.cpp:179:27
	vcvt.f64.f32	d17, s28
	.loc	3 189 108               @ /root/Bela/projects/Yinghao-final-2/render.cpp:189:108
	vadd.f32	d2, d16, d2
	.loc	3 179 25                @ /root/Bela/projects/Yinghao-final-2/render.cpp:179:25
	vmul.f64	d17, d17, d11
	.loc	3 189 36                @ /root/Bela/projects/Yinghao-final-2/render.cpp:189:36
	vstr	s4, [r0]
.Ltmp826:
	.loc	9 781 32                @ /usr/bin/../lib/gcc/arm-linux-gnueabihf/6.3.0/../../../../include/c++/6.3.0/bits/stl_vector.h:781:32
	ldr	r0, [r10, #100]
	.loc	9 781 41 is_stmt 0      @ /usr/bin/../lib/gcc/arm-linux-gnueabihf/6.3.0/../../../../include/c++/6.3.0/bits/stl_vector.h:781:41
	add	r0, r0, r2, lsl #2
.Ltmp827:
	.loc	3 191 30 is_stmt 1      @ /root/Bela/projects/Yinghao-final-2/render.cpp:191:30
	vstr	s2, [r0]
	.loc	3 223 22                @ /root/Bela/projects/Yinghao-final-2/render.cpp:223:22
	ldr	r0, [r10, #4]
.Ltmp828:
	@DEBUG_VALUE: operator[]:__n <- %R0
	@DEBUG_VALUE: operator[]:__n <- %R0
	@DEBUG_VALUE: operator[]:__n <- %R0
	.loc	9 781 32                @ /usr/bin/../lib/gcc/arm-linux-gnueabihf/6.3.0/../../../../include/c++/6.3.0/bits/stl_vector.h:781:32
	ldr	r1, [r5]
.Ltmp829:
	.loc	9 781 41 is_stmt 0      @ /usr/bin/../lib/gcc/arm-linux-gnueabihf/6.3.0/../../../../include/c++/6.3.0/bits/stl_vector.h:781:41
	add	r3, r12, r0, lsl #2
.Ltmp830:
	.loc	9 781 41                @ /usr/bin/../lib/gcc/arm-linux-gnueabihf/6.3.0/../../../../include/c++/6.3.0/bits/stl_vector.h:781:41
	add	r1, r1, r2, lsl #2
.Ltmp831:
	.loc	3 192 48 is_stmt 1      @ /root/Bela/projects/Yinghao-final-2/render.cpp:192:48
	vldr	s4, [r3]
	.loc	3 192 46 is_stmt 0      @ /root/Bela/projects/Yinghao-final-2/render.cpp:192:46
	vmul.f32	d16, d2, d8
	.loc	3 192 35                @ /root/Bela/projects/Yinghao-final-2/render.cpp:192:35
	vadd.f32	d2, d16, d12
	.loc	3 192 30                @ /root/Bela/projects/Yinghao-final-2/render.cpp:192:30
	vstr	s4, [r1]
.Ltmp832:
	.loc	9 781 32 is_stmt 1      @ /usr/bin/../lib/gcc/arm-linux-gnueabihf/6.3.0/../../../../include/c++/6.3.0/bits/stl_vector.h:781:32
	ldr	r1, [r5, #24]
	.loc	9 781 41 is_stmt 0      @ /usr/bin/../lib/gcc/arm-linux-gnueabihf/6.3.0/../../../../include/c++/6.3.0/bits/stl_vector.h:781:41
	add	r6, r1, r4
.Ltmp833:
	.loc	3 193 78 is_stmt 1      @ /root/Bela/projects/Yinghao-final-2/render.cpp:193:78
	vldr	s6, [r6]
.Ltmp834:
	.loc	9 781 41                @ /usr/bin/../lib/gcc/arm-linux-gnueabihf/6.3.0/../../../../include/c++/6.3.0/bits/stl_vector.h:781:41
	add	r6, r1, r2, lsl #2
.Ltmp835:
	.loc	9 781 41 is_stmt 0      @ /usr/bin/../lib/gcc/arm-linux-gnueabihf/6.3.0/../../../../include/c++/6.3.0/bits/stl_vector.h:781:41
	add	r1, r1, r0, lsl #2
.Ltmp836:
	.loc	3 193 76 is_stmt 1      @ /root/Bela/projects/Yinghao-final-2/render.cpp:193:76
	vmul.f32	d16, d3, d9
	.loc	3 193 72 is_stmt 0      @ /root/Bela/projects/Yinghao-final-2/render.cpp:193:72
	vadd.f32	d16, d16, d2
	.loc	3 193 41                @ /root/Bela/projects/Yinghao-final-2/render.cpp:193:41
	vmul.f32	d2, d16, d10
	.loc	3 193 30                @ /root/Bela/projects/Yinghao-final-2/render.cpp:193:30
	vstr	s4, [r6]
	.loc	3 194 68 is_stmt 1      @ /root/Bela/projects/Yinghao-final-2/render.cpp:194:68
	vldr	s6, [r3]
	vsub.f32	d16, d3, d2
	.loc	3 179 21                @ /root/Bela/projects/Yinghao-final-2/render.cpp:179:21
	vcvt.f32.f64	s4, d17
.Ltmp837:
	@DEBUG_VALUE: a_2 <- %S4
	vmul.f32	d16, d16, d2
	.loc	3 194 32                @ /root/Bela/projects/Yinghao-final-2/render.cpp:194:32
	vldr	s4, [r1]
.Ltmp838:
	.loc	9 781 41                @ /usr/bin/../lib/gcc/arm-linux-gnueabihf/6.3.0/../../../../include/c++/6.3.0/bits/stl_vector.h:781:41
	add	r1, r12, r2, lsl #2
.Ltmp839:
	.loc	3 180 27                @ /root/Bela/projects/Yinghao-final-2/render.cpp:180:27
	vcvt.f64.f32	d17, s26
	.loc	3 194 96                @ /root/Bela/projects/Yinghao-final-2/render.cpp:194:96
	vadd.f32	d2, d16, d2
	.loc	3 180 25                @ /root/Bela/projects/Yinghao-final-2/render.cpp:180:25
	vmul.f64	d17, d17, d11
	.loc	3 194 30                @ /root/Bela/projects/Yinghao-final-2/render.cpp:194:30
	vstr	s4, [r1]
.Ltmp840:
	.loc	9 781 32                @ /usr/bin/../lib/gcc/arm-linux-gnueabihf/6.3.0/../../../../include/c++/6.3.0/bits/stl_vector.h:781:32
	ldr	r1, [r5, #36]
	.loc	9 781 41 is_stmt 0      @ /usr/bin/../lib/gcc/arm-linux-gnueabihf/6.3.0/../../../../include/c++/6.3.0/bits/stl_vector.h:781:41
	add	r1, r1, r2, lsl #2
.Ltmp841:
	.loc	3 195 30 is_stmt 1      @ /root/Bela/projects/Yinghao-final-2/render.cpp:195:30
	vstr	s2, [r1]
	.loc	3 227 22                @ /root/Bela/projects/Yinghao-final-2/render.cpp:227:22
	ldr	r9, [r10, #8]
.Ltmp842:
	@DEBUG_VALUE: operator[]:__n <- %R9
	@DEBUG_VALUE: operator[]:__n <- %R9
	@DEBUG_VALUE: operator[]:__n <- %R9
	.loc	9 781 32                @ /usr/bin/../lib/gcc/arm-linux-gnueabihf/6.3.0/../../../../include/c++/6.3.0/bits/stl_vector.h:781:32
	ldr	r3, [r5, #60]
.Ltmp843:
	.loc	9 781 41 is_stmt 0      @ /usr/bin/../lib/gcc/arm-linux-gnueabihf/6.3.0/../../../../include/c++/6.3.0/bits/stl_vector.h:781:41
	add	r1, lr, r9, lsl #2
.Ltmp844:
	.loc	9 781 41                @ /usr/bin/../lib/gcc/arm-linux-gnueabihf/6.3.0/../../../../include/c++/6.3.0/bits/stl_vector.h:781:41
	add	r3, r3, r2, lsl #2
.Ltmp845:
	.loc	3 196 48 is_stmt 1      @ /root/Bela/projects/Yinghao-final-2/render.cpp:196:48
	vldr	s4, [r1]
	.loc	3 196 46 is_stmt 0      @ /root/Bela/projects/Yinghao-final-2/render.cpp:196:46
	vmul.f32	d16, d2, d8
	.loc	3 196 35                @ /root/Bela/projects/Yinghao-final-2/render.cpp:196:35
	vadd.f32	d2, d16, d12
	.loc	3 196 30                @ /root/Bela/projects/Yinghao-final-2/render.cpp:196:30
	vstr	s4, [r3]
.Ltmp846:
	.loc	9 781 32 is_stmt 1      @ /usr/bin/../lib/gcc/arm-linux-gnueabihf/6.3.0/../../../../include/c++/6.3.0/bits/stl_vector.h:781:32
	ldr	r3, [r5, #84]
	.loc	9 781 41 is_stmt 0      @ /usr/bin/../lib/gcc/arm-linux-gnueabihf/6.3.0/../../../../include/c++/6.3.0/bits/stl_vector.h:781:41
	add	r4, r3, r4
.Ltmp847:
	.loc	3 197 78 is_stmt 1      @ /root/Bela/projects/Yinghao-final-2/render.cpp:197:78
	vldr	s6, [r4]
.Ltmp848:
	.loc	9 781 41                @ /usr/bin/../lib/gcc/arm-linux-gnueabihf/6.3.0/../../../../include/c++/6.3.0/bits/stl_vector.h:781:41
	add	r4, r3, r2, lsl #2
.Ltmp849:
	.loc	3 197 76                @ /root/Bela/projects/Yinghao-final-2/render.cpp:197:76
	vmul.f32	d16, d3, d9
	.loc	3 197 72 is_stmt 0      @ /root/Bela/projects/Yinghao-final-2/render.cpp:197:72
	vadd.f32	d16, d16, d2
	.loc	3 197 41                @ /root/Bela/projects/Yinghao-final-2/render.cpp:197:41
	vmul.f32	d2, d16, d10
	.loc	3 197 30                @ /root/Bela/projects/Yinghao-final-2/render.cpp:197:30
	vstr	s4, [r4]
	.loc	3 198 68 is_stmt 1      @ /root/Bela/projects/Yinghao-final-2/render.cpp:198:68
	vldr	s6, [r1]
.Ltmp850:
	.loc	9 781 41                @ /usr/bin/../lib/gcc/arm-linux-gnueabihf/6.3.0/../../../../include/c++/6.3.0/bits/stl_vector.h:781:41
	add	r1, r3, r9, lsl #2
	vsub.f32	d16, d3, d2
.Ltmp851:
	.loc	3 180 21                @ /root/Bela/projects/Yinghao-final-2/render.cpp:180:21
	vcvt.f32.f64	s4, d17
.Ltmp852:
	@DEBUG_VALUE: a_3 <- %S4
	vmul.f32	d16, d16, d2
	.loc	3 198 32                @ /root/Bela/projects/Yinghao-final-2/render.cpp:198:32
	vldr	s4, [r1]
.Ltmp853:
	.loc	3 181 27                @ /root/Bela/projects/Yinghao-final-2/render.cpp:181:27
	vcvt.f64.f32	d17, s0
.Ltmp854:
	.loc	9 781 41                @ /usr/bin/../lib/gcc/arm-linux-gnueabihf/6.3.0/../../../../include/c++/6.3.0/bits/stl_vector.h:781:41
	add	r1, lr, r2, lsl #2
.Ltmp855:
	.loc	3 198 96                @ /root/Bela/projects/Yinghao-final-2/render.cpp:198:96
	vadd.f32	d0, d16, d2
	.loc	3 181 25                @ /root/Bela/projects/Yinghao-final-2/render.cpp:181:25
	vmul.f64	d16, d17, d11
	.loc	3 198 30                @ /root/Bela/projects/Yinghao-final-2/render.cpp:198:30
	vstr	s0, [r1]
	.loc	3 235 21                @ /root/Bela/projects/Yinghao-final-2/render.cpp:235:21
	ldr	r4, [r10, #16]
.Ltmp856:
	@DEBUG_VALUE: operator[]:__n <- %R4
	@DEBUG_VALUE: operator[]:__n <- %R4
	@DEBUG_VALUE: operator[]:__n <- %R4
	@DEBUG_VALUE: operator[]:__n <- %R4
	@DEBUG_VALUE: operator[]:__n <- %R4
	@DEBUG_VALUE: operator[]:__n <- %R4
	@DEBUG_VALUE: operator[]:__n <- %R4
	@DEBUG_VALUE: operator[]:__n <- %R4
	@DEBUG_VALUE: operator[]:__n <- %R4
	@DEBUG_VALUE: operator[]:__n <- %R4
	.loc	9 781 32                @ /usr/bin/../lib/gcc/arm-linux-gnueabihf/6.3.0/../../../../include/c++/6.3.0/bits/stl_vector.h:781:32
	ldr	r1, [r5, #96]
	.loc	9 781 41 is_stmt 0      @ /usr/bin/../lib/gcc/arm-linux-gnueabihf/6.3.0/../../../../include/c++/6.3.0/bits/stl_vector.h:781:41
	add	r1, r1, r4, lsl #2
.Ltmp857:
	.loc	3 199 30 is_stmt 1      @ /root/Bela/projects/Yinghao-final-2/render.cpp:199:30
	vstr	s2, [r1]
	.loc	3 231 22                @ /root/Bela/projects/Yinghao-final-2/render.cpp:231:22
	ldr	r2, [r10, #12]
.Ltmp858:
	@DEBUG_VALUE: operator[]:__n <- %R2
	@DEBUG_VALUE: operator[]:__n <- %R2
	@DEBUG_VALUE: operator[]:__n <- %R2
	.loc	3 181 21                @ /root/Bela/projects/Yinghao-final-2/render.cpp:181:21
	vcvt.f32.f64	s2, d16
.Ltmp859:
	@DEBUG_VALUE: a_4 <- %S2
	.loc	9 781 41                @ /usr/bin/../lib/gcc/arm-linux-gnueabihf/6.3.0/../../../../include/c++/6.3.0/bits/stl_vector.h:781:41
	ldr	r1, [sp, #28]           @ 4-byte Reload
	add	r1, r1, r2, lsl #2
.Ltmp860:
	.loc	3 200 48                @ /root/Bela/projects/Yinghao-final-2/render.cpp:200:48
	vldr	s0, [r1]
.Ltmp861:
	.loc	3 138 40 discriminator 1 @ /root/Bela/projects/Yinghao-final-2/render.cpp:138:40
	movw	r1, :lower16:.L_MergedGlobals.4
	movt	r1, :upper16:.L_MergedGlobals.4
.Ltmp862:
	.loc	3 200 46                @ /root/Bela/projects/Yinghao-final-2/render.cpp:200:46
	vmul.f32	d17, d0, d8
	mov	r3, r1
.Ltmp863:
	.loc	9 781 32                @ /usr/bin/../lib/gcc/arm-linux-gnueabihf/6.3.0/../../../../include/c++/6.3.0/bits/stl_vector.h:781:32
	ldr	r1, [r3]
	.loc	9 781 41 is_stmt 0      @ /usr/bin/../lib/gcc/arm-linux-gnueabihf/6.3.0/../../../../include/c++/6.3.0/bits/stl_vector.h:781:41
	add	r1, r1, r4, lsl #2
.Ltmp864:
	.loc	3 200 35 is_stmt 1      @ /root/Bela/projects/Yinghao-final-2/render.cpp:200:35
	vadd.f32	d0, d17, d12
	.loc	3 200 30 is_stmt 0      @ /root/Bela/projects/Yinghao-final-2/render.cpp:200:30
	vstr	s0, [r1]
.Ltmp865:
	.loc	9 781 32 is_stmt 1      @ /usr/bin/../lib/gcc/arm-linux-gnueabihf/6.3.0/../../../../include/c++/6.3.0/bits/stl_vector.h:781:32
	ldr	r1, [r3, #24]
	add	r3, r1, r4, lsl #2
.Ltmp866:
	.loc	9 781 41 is_stmt 0      @ /usr/bin/../lib/gcc/arm-linux-gnueabihf/6.3.0/../../../../include/c++/6.3.0/bits/stl_vector.h:781:41
	add	r1, r1, r2, lsl #2
.Ltmp867:
	.loc	3 201 78 is_stmt 1      @ /root/Bela/projects/Yinghao-final-2/render.cpp:201:78
	vldr	s4, [r3, #-4]
	.loc	3 201 76 is_stmt 0      @ /root/Bela/projects/Yinghao-final-2/render.cpp:201:76
	vmul.f32	d16, d2, d9
	.loc	3 201 72                @ /root/Bela/projects/Yinghao-final-2/render.cpp:201:72
	vadd.f32	d16, d16, d0
	.loc	3 201 41                @ /root/Bela/projects/Yinghao-final-2/render.cpp:201:41
	vmul.f32	d0, d16, d10
	.loc	3 201 30                @ /root/Bela/projects/Yinghao-final-2/render.cpp:201:30
	vstr	s0, [r3]
.Ltmp868:
	.loc	9 781 32 is_stmt 1      @ /usr/bin/../lib/gcc/arm-linux-gnueabihf/6.3.0/../../../../include/c++/6.3.0/bits/stl_vector.h:781:32
	ldr	r3, [r5, #108]
.Ltmp869:
	.loc	9 781 41 is_stmt 0      @ /usr/bin/../lib/gcc/arm-linux-gnueabihf/6.3.0/../../../../include/c++/6.3.0/bits/stl_vector.h:781:41
	add	r7, r3, r2, lsl #2
.Ltmp870:
	.loc	3 202 68 is_stmt 1      @ /root/Bela/projects/Yinghao-final-2/render.cpp:202:68
	vldr	s4, [r7]
	vsub.f32	d16, d2, d0
	.loc	3 202 32 is_stmt 0      @ /root/Bela/projects/Yinghao-final-2/render.cpp:202:32
	vldr	s0, [r1]
.Ltmp871:
	.loc	9 781 41 is_stmt 1      @ /usr/bin/../lib/gcc/arm-linux-gnueabihf/6.3.0/../../../../include/c++/6.3.0/bits/stl_vector.h:781:41
	add	r1, r3, r4, lsl #2
	vmul.f32	d16, d16, d1
.Ltmp872:
	.loc	3 209 44                @ /root/Bela/projects/Yinghao-final-2/render.cpp:209:44
	vadd.f32	d1, d16, d0
.Ltmp873:
	vorr	d0, d12, d12
.Ltmp874:
	.loc	3 202 30                @ /root/Bela/projects/Yinghao-final-2/render.cpp:202:30
	vstr	s2, [r1]
.Ltmp875:
	@DEBUG_VALUE: right <- 0.000000e+00
	@DEBUG_VALUE: left <- 0.000000e+00
	.loc	3 172 26                @ /root/Bela/projects/Yinghao-final-2/render.cpp:172:26
	movw	r1, :lower16:_ZZ6renderE9playReveb
	movt	r1, :upper16:_ZZ6renderE9playReveb
.Ltmp876:
	.loc	3 207 12                @ /root/Bela/projects/Yinghao-final-2/render.cpp:207:12
	ldrb	r1, [r1]
.Ltmp877:
	.loc	3 207 12 is_stmt 0      @ /root/Bela/projects/Yinghao-final-2/render.cpp:207:12
	cmp	r1, #0
	beq	.LBB4_7
.Ltmp878:
@ BB#6:                                 @   in Loop: Header=BB4_3 Depth=1
	@DEBUG_VALUE: operator[]:__n <- %R2
	@DEBUG_VALUE: operator[]:__n <- %R2
	@DEBUG_VALUE: operator[]:__n <- %R2
	@DEBUG_VALUE: operator[]:__n <- %R4
	@DEBUG_VALUE: operator[]:__n <- %R4
	@DEBUG_VALUE: operator[]:__n <- %R4
	@DEBUG_VALUE: operator[]:__n <- %R4
	@DEBUG_VALUE: operator[]:__n <- %R4
	@DEBUG_VALUE: operator[]:__n <- %R4
	@DEBUG_VALUE: operator[]:__n <- %R4
	@DEBUG_VALUE: operator[]:__n <- %R4
	@DEBUG_VALUE: operator[]:__n <- %R4
	@DEBUG_VALUE: operator[]:__n <- %R4
	@DEBUG_VALUE: operator[]:__n <- %R9
	@DEBUG_VALUE: operator[]:__n <- %R9
	@DEBUG_VALUE: operator[]:__n <- %R9
	@DEBUG_VALUE: operator[]:__n <- %R0
	@DEBUG_VALUE: operator[]:__n <- %R0
	@DEBUG_VALUE: operator[]:__n <- %R0
	@DEBUG_VALUE: in <- %S24
	.loc	9 781 32 is_stmt 1      @ /usr/bin/../lib/gcc/arm-linux-gnueabihf/6.3.0/../../../../include/c++/6.3.0/bits/stl_vector.h:781:32
	ldr	r1, [r10, #52]
.Ltmp879:
	.loc	9 781 32 is_stmt 0      @ /usr/bin/../lib/gcc/arm-linux-gnueabihf/6.3.0/../../../../include/c++/6.3.0/bits/stl_vector.h:781:32
	ldr	r3, [r10, #112]
.Ltmp880:
	.loc	9 781 32                @ /usr/bin/../lib/gcc/arm-linux-gnueabihf/6.3.0/../../../../include/c++/6.3.0/bits/stl_vector.h:781:32
	ldr	r7, [r5, #48]
.Ltmp881:
	.loc	9 781 41                @ /usr/bin/../lib/gcc/arm-linux-gnueabihf/6.3.0/../../../../include/c++/6.3.0/bits/stl_vector.h:781:41
	add	r1, r1, r4, lsl #2
.Ltmp882:
	.loc	9 781 41                @ /usr/bin/../lib/gcc/arm-linux-gnueabihf/6.3.0/../../../../include/c++/6.3.0/bits/stl_vector.h:781:41
	add	r3, r3, r4, lsl #2
	vldr	d18, [sp]               @ 8-byte Reload
.Ltmp883:
	.loc	9 781 41                @ /usr/bin/../lib/gcc/arm-linux-gnueabihf/6.3.0/../../../../include/c++/6.3.0/bits/stl_vector.h:781:41
	add	r7, r7, r4, lsl #2
.Ltmp884:
	.loc	3 208 11 is_stmt 1      @ /root/Bela/projects/Yinghao-final-2/render.cpp:208:11
	vldr	s6, [r1]
	.loc	3 209 15                @ /root/Bela/projects/Yinghao-final-2/render.cpp:209:15
	vldr	s4, [r3]
	.loc	3 208 46                @ /root/Bela/projects/Yinghao-final-2/render.cpp:208:46
	vldr	s0, [r7]
	.loc	3 209 42                @ /root/Bela/projects/Yinghao-final-2/render.cpp:209:42
	vsub.f32	d16, d2, d1
	.loc	3 208 44                @ /root/Bela/projects/Yinghao-final-2/render.cpp:208:44
	vsub.f32	d17, d3, d0
.Ltmp885:
	@DEBUG_VALUE: right <- undef
	.loc	3 211 13                @ /root/Bela/projects/Yinghao-final-2/render.cpp:211:13
	vmul.f32	d0, d16, d18
.Ltmp886:
	@DEBUG_VALUE: left <- undef
	.loc	3 210 12                @ /root/Bela/projects/Yinghao-final-2/render.cpp:210:12
	vmul.f32	d12, d17, d18
.Ltmp887:
	@DEBUG_VALUE: right <- %S0
	@DEBUG_VALUE: left <- %S24
.LBB4_7:                                @   in Loop: Header=BB4_3 Depth=1
	@DEBUG_VALUE: operator[]:__n <- %R2
	@DEBUG_VALUE: operator[]:__n <- %R2
	@DEBUG_VALUE: operator[]:__n <- %R2
	@DEBUG_VALUE: operator[]:__n <- %R4
	@DEBUG_VALUE: operator[]:__n <- %R4
	@DEBUG_VALUE: operator[]:__n <- %R4
	@DEBUG_VALUE: operator[]:__n <- %R4
	@DEBUG_VALUE: operator[]:__n <- %R4
	@DEBUG_VALUE: operator[]:__n <- %R4
	@DEBUG_VALUE: operator[]:__n <- %R4
	@DEBUG_VALUE: operator[]:__n <- %R4
	@DEBUG_VALUE: operator[]:__n <- %R4
	@DEBUG_VALUE: operator[]:__n <- %R4
	@DEBUG_VALUE: operator[]:__n <- %R9
	@DEBUG_VALUE: operator[]:__n <- %R9
	@DEBUG_VALUE: operator[]:__n <- %R9
	@DEBUG_VALUE: operator[]:__n <- %R0
	@DEBUG_VALUE: operator[]:__n <- %R0
	@DEBUG_VALUE: operator[]:__n <- %R0
	.loc	3 248 21                @ /root/Bela/projects/Yinghao-final-2/render.cpp:248:21
	vadd.f32	d1, d0, d12
.Ltmp888:
	.loc	9 656 66                @ /usr/bin/../lib/gcc/arm-linux-gnueabihf/6.3.0/../../../../include/c++/6.3.0/bits/stl_vector.h:656:66
	ldrd	r6, r7, [r10, #40]
.Ltmp889:
	.loc	3 219 20                @ /root/Bela/projects/Yinghao-final-2/render.cpp:219:20
	ldr	r1, [r10]
	.loc	3 223 22                @ /root/Bela/projects/Yinghao-final-2/render.cpp:223:22
	add	r0, r0, #1
.Ltmp890:
	.loc	9 656 50                @ /usr/bin/../lib/gcc/arm-linux-gnueabihf/6.3.0/../../../../include/c++/6.3.0/bits/stl_vector.h:656:50
	sub	r7, r7, r6
	mov	r6, #0
.Ltmp891:
	.loc	3 219 20                @ /root/Bela/projects/Yinghao-final-2/render.cpp:219:20
	add	r1, r1, #1
	.loc	3 220 13                @ /root/Bela/projects/Yinghao-final-2/render.cpp:220:13
	cmp	r1, r7, asr #2
	.loc	3 248 17                @ /root/Bela/projects/Yinghao-final-2/render.cpp:248:17
	vcvt.f64.f32	d16, s2
	.loc	3 220 13                @ /root/Bela/projects/Yinghao-final-2/render.cpp:220:13
	movhs	r1, r6
	.loc	3 224 13                @ /root/Bela/projects/Yinghao-final-2/render.cpp:224:13
	cmp	r0, r7, asr #2
.Ltmp892:
	.loc	3 221 22                @ /root/Bela/projects/Yinghao-final-2/render.cpp:221:22
	str	r1, [r10]
.Ltmp893:
	.loc	3 224 13                @ /root/Bela/projects/Yinghao-final-2/render.cpp:224:13
	movhs	r0, r6
	.loc	3 227 22                @ /root/Bela/projects/Yinghao-final-2/render.cpp:227:22
	add	r1, r9, #1
.Ltmp894:
	.loc	3 225 24                @ /root/Bela/projects/Yinghao-final-2/render.cpp:225:24
	str	r0, [r10, #4]
.Ltmp895:
	.loc	3 231 22                @ /root/Bela/projects/Yinghao-final-2/render.cpp:231:22
	add	r0, r2, #1
	.loc	3 232 13                @ /root/Bela/projects/Yinghao-final-2/render.cpp:232:13
	cmp	r0, r7, asr #2
	.loc	3 248 13                @ /root/Bela/projects/Yinghao-final-2/render.cpp:248:13
	vmov	r2, r3, d16
.Ltmp896:
	.loc	3 232 13                @ /root/Bela/projects/Yinghao-final-2/render.cpp:232:13
	movhs	r0, r6
	.loc	3 228 13                @ /root/Bela/projects/Yinghao-final-2/render.cpp:228:13
	cmp	r1, r7, asr #2
	movhs	r1, r6
.Ltmp897:
	.loc	3 229 24                @ /root/Bela/projects/Yinghao-final-2/render.cpp:229:24
	str	r1, [r10, #8]
.Ltmp898:
	.loc	3 233 24                @ /root/Bela/projects/Yinghao-final-2/render.cpp:233:24
	str	r0, [r10, #12]
.Ltmp899:
	.loc	3 235 21                @ /root/Bela/projects/Yinghao-final-2/render.cpp:235:21
	add	r0, r4, #1
	.loc	3 236 13                @ /root/Bela/projects/Yinghao-final-2/render.cpp:236:13
	cmp	r0, r7, asr #2
	ldr	r4, [sp, #12]           @ 4-byte Reload
.Ltmp900:
	movhs	r0, r6
.Ltmp901:
	.loc	3 237 23                @ /root/Bela/projects/Yinghao-final-2/render.cpp:237:23
	str	r0, [r10, #16]
	ldr	r1, [r4, #28]
	ldr	r0, [r4, #4]
.Ltmp902:
	.loc	29 1466 26              @ ./include/Bela.h:1466:26
	mul	r1, r1, r8
	add	r0, r0, r1, lsl #2
	.loc	29 1466 65 is_stmt 0    @ ./include/Bela.h:1466:65
	vstr	s24, [r0]
.Ltmp903:
	.loc	29 1466 65              @ ./include/Bela.h:1466:65
	vstr	s0, [r0, #4]
.Ltmp904:
	.loc	29 1466 65              @ ./include/Bela.h:1466:65
	vstr	s24, [r0, #8]
.Ltmp905:
	.loc	29 1466 65              @ ./include/Bela.h:1466:65
	vstr	s0, [r0, #12]
.Ltmp906:
	.loc	3 248 13 is_stmt 1      @ /root/Bela/projects/Yinghao-final-2/render.cpp:248:13
	movw	r0, :lower16:gScope
	movt	r0, :upper16:gScope
	bl	_ZN5Scope3logEdz
.Ltmp907:
	.loc	3 165 56 discriminator 3 @ /root/Bela/projects/Yinghao-final-2/render.cpp:165:56
	add	r8, r8, #1
.Ltmp908:
	@DEBUG_VALUE: n <- %R8
	.loc	3 165 42 is_stmt 0 discriminator 1 @ /root/Bela/projects/Yinghao-final-2/render.cpp:165:42
	ldr	r0, [r4, #20]
	.loc	3 165 5 discriminator 1 @ /root/Bela/projects/Yinghao-final-2/render.cpp:165:5
	cmp	r8, r0
	blo	.LBB4_3
.Ltmp909:
.LBB4_8:                                @ %._crit_edge
	.loc	3 250 1 is_stmt 1       @ /root/Bela/projects/Yinghao-final-2/render.cpp:250:1
	sub	sp, r11, #96
	vpop	{d8, d9, d10, d11, d12, d13, d14, d15}
	add	sp, sp, #4
	pop	{r4, r5, r6, r7, r8, r9, r10, r11, pc}
.Ltmp910:
@ BB#9:
.Lfunc_end4:
	.size	render, .Lfunc_end4-render
	.cfi_endproc
	.fnend

	.globl	cleanup
	.p2align	2
	.type	cleanup,%function
cleanup:                                @ @cleanup
.Lfunc_begin5:
	.loc	3 253 0                 @ /root/Bela/projects/Yinghao-final-2/render.cpp:253:0
	.fnstart
	.cfi_startproc
@ BB#0:
	@DEBUG_VALUE: cleanup:context <- %R0
	@DEBUG_VALUE: cleanup:userData <- %R1
	.loc	3 255 1 prologue_end    @ /root/Bela/projects/Yinghao-final-2/render.cpp:255:1
	bx	lr
.Ltmp911:
.Lfunc_end5:
	.size	cleanup, .Lfunc_end5-cleanup
	.cfi_endproc
	.fnend

	.section	.text._ZNSt6vectorIfSaIfEE17_M_default_appendEj,"axG",%progbits,_ZNSt6vectorIfSaIfEE17_M_default_appendEj,comdat
	.weak	_ZNSt6vectorIfSaIfEE17_M_default_appendEj
	.p2align	2
	.type	_ZNSt6vectorIfSaIfEE17_M_default_appendEj,%function
_ZNSt6vectorIfSaIfEE17_M_default_appendEj: @ @_ZNSt6vectorIfSaIfEE17_M_default_appendEj
.Lfunc_begin6:
	.file	57 "/usr/bin/../lib/gcc/arm-linux-gnueabihf/6.3.0/../../../../include/c++/6.3.0/bits" "vector.tcc"
	.loc	57 542 0                @ /usr/bin/../lib/gcc/arm-linux-gnueabihf/6.3.0/../../../../include/c++/6.3.0/bits/vector.tcc:542:0
	.fnstart
	.cfi_startproc
@ BB#0:
	.save	{r4, r5, r6, r7, r8, r10, r11, lr}
	push	{r4, r5, r6, r7, r8, r10, r11, lr}
.Ltmp912:
	.cfi_def_cfa_offset 32
.Ltmp913:
	.cfi_offset lr, -4
.Ltmp914:
	.cfi_offset r11, -8
.Ltmp915:
	.cfi_offset r10, -12
.Ltmp916:
	.cfi_offset r8, -16
.Ltmp917:
	.cfi_offset r7, -20
.Ltmp918:
	.cfi_offset r6, -24
.Ltmp919:
	.cfi_offset r5, -28
.Ltmp920:
	.cfi_offset r4, -32
	.setfp	r11, sp, #24
	add	r11, sp, #24
.Ltmp921:
	.cfi_def_cfa r11, 8
	@DEBUG_VALUE: _M_default_append:this <- %R0
	@DEBUG_VALUE: _M_default_append:__n <- %R1
	mov	r5, r1
.Ltmp922:
	@DEBUG_VALUE: _M_default_append:__n <- %R5
	mov	r4, r0
.Ltmp923:
	@DEBUG_VALUE: _M_default_append:this <- %R4
	.loc	57 543 11 prologue_end  @ /usr/bin/../lib/gcc/arm-linux-gnueabihf/6.3.0/../../../../include/c++/6.3.0/bits/vector.tcc:543:11
	cmp	r5, #0
	beq	.LBB6_11
.Ltmp924:
@ BB#1:
	@DEBUG_VALUE: _M_default_append:this <- %R4
	@DEBUG_VALUE: _M_default_append:__n <- %R5
	@DEBUG_VALUE: __fill_n_a<float *, unsigned int, float>:__first <- %R7
	@DEBUG_VALUE: fill_n<float *, unsigned int, float>:__first <- %R7
	@DEBUG_VALUE: __uninit_default_n<float *, unsigned int>:__first <- %R7
	@DEBUG_VALUE: __uninitialized_default_n<float *, unsigned int>:__first <- %R7
	@DEBUG_VALUE: __uninitialized_default_n_a<float *, unsigned int, float>:__first <- %R7
	.loc	57 546 20               @ /usr/bin/../lib/gcc/arm-linux-gnueabihf/6.3.0/../../../../include/c++/6.3.0/bits/vector.tcc:546:20
	ldr	r7, [r4, #4]
.Ltmp925:
	.loc	57 545 32               @ /usr/bin/../lib/gcc/arm-linux-gnueabihf/6.3.0/../../../../include/c++/6.3.0/bits/vector.tcc:545:32
	ldr	r0, [r4, #8]
	.loc	57 546 4                @ /usr/bin/../lib/gcc/arm-linux-gnueabihf/6.3.0/../../../../include/c++/6.3.0/bits/vector.tcc:546:4
	sub	r0, r0, r7
	asr	r0, r0, #2
.Ltmp926:
	.loc	57 545 8                @ /usr/bin/../lib/gcc/arm-linux-gnueabihf/6.3.0/../../../../include/c++/6.3.0/bits/vector.tcc:545:8
	cmp	r0, r5
	bhs	.LBB6_12
.Ltmp927:
@ BB#2:
	@DEBUG_VALUE: _M_default_append:this <- %R4
	@DEBUG_VALUE: _M_default_append:__n <- %R5
	@DEBUG_VALUE: size:this <- %R4
	.loc	9 656 66                @ /usr/bin/../lib/gcc/arm-linux-gnueabihf/6.3.0/../../../../include/c++/6.3.0/bits/stl_vector.h:656:66
	ldr	r1, [r4]
.Ltmp928:
	.loc	9 1422 17               @ /usr/bin/../lib/gcc/arm-linux-gnueabihf/6.3.0/../../../../include/c++/6.3.0/bits/stl_vector.h:1422:17
	mvn	r8, #-1073741824
.Ltmp929:
	.loc	9 656 50                @ /usr/bin/../lib/gcc/arm-linux-gnueabihf/6.3.0/../../../../include/c++/6.3.0/bits/stl_vector.h:656:50
	sub	r0, r7, r1
.Ltmp930:
	.loc	9 1422 17               @ /usr/bin/../lib/gcc/arm-linux-gnueabihf/6.3.0/../../../../include/c++/6.3.0/bits/stl_vector.h:1422:17
	sub	r2, r8, r0, asr #2
.Ltmp931:
	@DEBUG_VALUE: _M_check_len:__n <- %R5
	.loc	9 1422 6 is_stmt 0      @ /usr/bin/../lib/gcc/arm-linux-gnueabihf/6.3.0/../../../../include/c++/6.3.0/bits/stl_vector.h:1422:6
	cmp	r2, r5
	blo	.LBB6_13
.Ltmp932:
@ BB#3:                                 @ %_ZNKSt6vectorIfSaIfEE12_M_check_lenEjPKc.exit
	@DEBUG_VALUE: _M_check_len:__n <- %R5
	@DEBUG_VALUE: size:this <- %R4
	@DEBUG_VALUE: _M_default_append:this <- %R4
	@DEBUG_VALUE: _M_default_append:__n <- %R5
	.loc	9 656 50 is_stmt 1      @ /usr/bin/../lib/gcc/arm-linux-gnueabihf/6.3.0/../../../../include/c++/6.3.0/bits/stl_vector.h:656:50
	asr	r0, r0, #2
.Ltmp933:
	.loc	9 1425 35               @ /usr/bin/../lib/gcc/arm-linux-gnueabihf/6.3.0/../../../../include/c++/6.3.0/bits/stl_vector.h:1425:35
	cmp	r0, r5
	mov	r2, r0
	mov	r6, #0
	movlo	r2, r5
	add	r0, r2, r0
	.loc	9 1426 25               @ /usr/bin/../lib/gcc/arm-linux-gnueabihf/6.3.0/../../../../include/c++/6.3.0/bits/stl_vector.h:1426:25
	cmp	r6, r0, lsr #30
	mov	r3, r0
	mvnne	r3, #-1073741824
	cmp	r0, r2
	movhs	r8, r3
.Ltmp934:
	@DEBUG_VALUE: _M_allocate:__n <- %R8
	@DEBUG_VALUE: __len <- %R8
	@DEBUG_VALUE: allocate:__n <- %R8
	@DEBUG_VALUE: allocate:__n <- %R8
	.loc	9 170 9                 @ /usr/bin/../lib/gcc/arm-linux-gnueabihf/6.3.0/../../../../include/c++/6.3.0/bits/stl_vector.h:170:9
	cmp	r8, #0
.Ltmp935:
	@DEBUG_VALUE: _M_check_len:__len <- %R0
	beq	.LBB6_6
.Ltmp936:
@ BB#4:
	@DEBUG_VALUE: _M_check_len:__len <- %R0
	@DEBUG_VALUE: allocate:__n <- %R8
	@DEBUG_VALUE: allocate:__n <- %R8
	@DEBUG_VALUE: __len <- %R8
	@DEBUG_VALUE: _M_allocate:__n <- %R8
	@DEBUG_VALUE: _M_check_len:__n <- %R5
	@DEBUG_VALUE: size:this <- %R4
	@DEBUG_VALUE: _M_default_append:this <- %R4
	@DEBUG_VALUE: _M_default_append:__n <- %R5
	.loc	5 101 6                 @ /usr/bin/../lib/gcc/arm-linux-gnueabihf/6.3.0/../../../../include/c++/6.3.0/ext/new_allocator.h:101:6
	cmp	r8, #1073741824
	bhs	.LBB6_14
.Ltmp937:
@ BB#5:                                 @ %_ZNSt16allocator_traitsISaIfEE8allocateERS0_j.exit.i
	@DEBUG_VALUE: _M_check_len:__len <- %R0
	@DEBUG_VALUE: allocate:__n <- %R8
	@DEBUG_VALUE: allocate:__n <- %R8
	@DEBUG_VALUE: __len <- %R8
	@DEBUG_VALUE: _M_allocate:__n <- %R8
	@DEBUG_VALUE: _M_check_len:__n <- %R5
	@DEBUG_VALUE: size:this <- %R4
	@DEBUG_VALUE: _M_default_append:this <- %R4
	@DEBUG_VALUE: _M_default_append:__n <- %R5
	.loc	5 104 46                @ /usr/bin/../lib/gcc/arm-linux-gnueabihf/6.3.0/../../../../include/c++/6.3.0/ext/new_allocator.h:104:46
	lsl	r0, r8, #2
.Ltmp938:
	.loc	5 104 27 is_stmt 0      @ /usr/bin/../lib/gcc/arm-linux-gnueabihf/6.3.0/../../../../include/c++/6.3.0/ext/new_allocator.h:104:27
	bl	_Znwj
.Ltmp939:
	.loc	57 563 22 is_stmt 1     @ /usr/bin/../lib/gcc/arm-linux-gnueabihf/6.3.0/../../../../include/c++/6.3.0/bits/vector.tcc:563:22
	ldm	r4, {r1, r7}
.Ltmp940:
	@DEBUG_VALUE: size:this <- %R4
	.loc	5 104 27                @ /usr/bin/../lib/gcc/arm-linux-gnueabihf/6.3.0/../../../../include/c++/6.3.0/ext/new_allocator.h:104:27
	mov	r6, r0
.Ltmp941:
.LBB6_6:                                @ %_ZNSt12_Vector_baseIfSaIfEE11_M_allocateEj.exit
	@DEBUG_VALUE: allocate:__n <- %R8
	@DEBUG_VALUE: allocate:__n <- %R8
	@DEBUG_VALUE: __len <- %R8
	@DEBUG_VALUE: _M_allocate:__n <- %R8
	@DEBUG_VALUE: _M_check_len:__n <- %R5
	@DEBUG_VALUE: size:this <- %R4
	@DEBUG_VALUE: _M_default_append:this <- %R4
	@DEBUG_VALUE: _M_default_append:__n <- %R5
	@DEBUG_VALUE: __uninitialized_move_if_noexcept_a<float *, float *, std::allocator<float> >:__first <- %R1
	@DEBUG_VALUE: uninitialized_copy<std::move_iterator<float *>, float *>:__assignable <- 1
	@DEBUG_VALUE: __copy_move_a<true, float *, float *>:__simple <- 1
	.file	58 "/usr/bin/../lib/gcc/arm-linux-gnueabihf/6.3.0/../../../../include/c++/6.3.0/bits" "stl_algobase.h"
	.loc	58 366 34               @ /usr/bin/../lib/gcc/arm-linux-gnueabihf/6.3.0/../../../../include/c++/6.3.0/bits/stl_algobase.h:366:34
	sub	r2, r7, r1
	mov	r0, #0
	asr	r7, r2, #2
.Ltmp942:
	@DEBUG_VALUE: __copy_m<float>:_Num <- %R7
	.loc	58 367 8                @ /usr/bin/../lib/gcc/arm-linux-gnueabihf/6.3.0/../../../../include/c++/6.3.0/bits/stl_algobase.h:367:8
	cmp	r0, r2, asr #2
	beq	.LBB6_8
.Ltmp943:
@ BB#7:
	@DEBUG_VALUE: __copy_m<float>:_Num <- %R7
	@DEBUG_VALUE: __uninitialized_move_if_noexcept_a<float *, float *, std::allocator<float> >:__first <- %R1
	@DEBUG_VALUE: allocate:__n <- %R8
	@DEBUG_VALUE: allocate:__n <- %R8
	@DEBUG_VALUE: __len <- %R8
	@DEBUG_VALUE: _M_allocate:__n <- %R8
	@DEBUG_VALUE: _M_check_len:__n <- %R5
	@DEBUG_VALUE: size:this <- %R4
	@DEBUG_VALUE: _M_default_append:this <- %R4
	@DEBUG_VALUE: _M_default_append:__n <- %R5
	.loc	58 368 6                @ /usr/bin/../lib/gcc/arm-linux-gnueabihf/6.3.0/../../../../include/c++/6.3.0/bits/stl_algobase.h:368:6
	mov	r0, r6
	bl	memmove
.Ltmp944:
	@DEBUG_VALUE: __uninitialized_move_if_noexcept_a<float *, float *, std::allocator<float> >:__result <- %R6
.LBB6_8:
	@DEBUG_VALUE: __copy_m<float>:_Num <- %R7
	@DEBUG_VALUE: allocate:__n <- %R8
	@DEBUG_VALUE: allocate:__n <- %R8
	@DEBUG_VALUE: __len <- %R8
	@DEBUG_VALUE: _M_allocate:__n <- %R8
	@DEBUG_VALUE: _M_check_len:__n <- %R5
	@DEBUG_VALUE: size:this <- %R4
	@DEBUG_VALUE: _M_default_append:this <- %R4
	@DEBUG_VALUE: _M_default_append:__n <- %R5
	.loc	58 369 20               @ /usr/bin/../lib/gcc/arm-linux-gnueabihf/6.3.0/../../../../include/c++/6.3.0/bits/stl_algobase.h:369:20
	add	r7, r6, r7, lsl #2
.Ltmp945:
	@DEBUG_VALUE: __niter <- %R5
	@DEBUG_VALUE: __fill_n_a<float *, unsigned int, float>:__first <- %R7
	@DEBUG_VALUE: fill_n<float *, unsigned int, float>:__first <- %R7
	@DEBUG_VALUE: __uninit_default_n<float *, unsigned int>:__first <- %R7
	@DEBUG_VALUE: __uninitialized_default_n<float *, unsigned int>:__assignable <- 1
	@DEBUG_VALUE: __uninitialized_default_n<float *, unsigned int>:__first <- %R7
	@DEBUG_VALUE: __uninitialized_default_n_a<float *, unsigned int, float>:__first <- %R7
	@DEBUG_VALUE: __new_finish <- %R7
	.loc	58 754 11               @ /usr/bin/../lib/gcc/arm-linux-gnueabihf/6.3.0/../../../../include/c++/6.3.0/bits/stl_algobase.h:754:11
	lsl	r2, r5, #2
	mov	r1, #0
	mov	r0, r7
	bl	memset
.Ltmp946:
	.loc	57 578 36               @ /usr/bin/../lib/gcc/arm-linux-gnueabihf/6.3.0/../../../../include/c++/6.3.0/bits/vector.tcc:578:36
	ldr	r0, [r4]
.Ltmp947:
	@DEBUG_VALUE: _M_deallocate:__p <- %R0
	@DEBUG_VALUE: deallocate:__p <- %R0
	@DEBUG_VALUE: deallocate:__p <- %R0
	.loc	58 754 11               @ /usr/bin/../lib/gcc/arm-linux-gnueabihf/6.3.0/../../../../include/c++/6.3.0/bits/stl_algobase.h:754:11
	add	r5, r7, r5, lsl #2
.Ltmp948:
	@DEBUG_VALUE: __new_finish <- %R5
	.loc	9 177 6                 @ /usr/bin/../lib/gcc/arm-linux-gnueabihf/6.3.0/../../../../include/c++/6.3.0/bits/stl_vector.h:177:6
	cmp	r0, #0
	beq	.LBB6_10
.Ltmp949:
@ BB#9:
	@DEBUG_VALUE: __new_finish <- %R5
	@DEBUG_VALUE: deallocate:__p <- %R0
	@DEBUG_VALUE: deallocate:__p <- %R0
	@DEBUG_VALUE: _M_deallocate:__p <- %R0
	@DEBUG_VALUE: __uninitialized_default_n_a<float *, unsigned int, float>:__first <- %R7
	@DEBUG_VALUE: __uninitialized_default_n<float *, unsigned int>:__first <- %R7
	@DEBUG_VALUE: __uninit_default_n<float *, unsigned int>:__first <- %R7
	@DEBUG_VALUE: fill_n<float *, unsigned int, float>:__first <- %R7
	@DEBUG_VALUE: __fill_n_a<float *, unsigned int, float>:__first <- %R7
	@DEBUG_VALUE: allocate:__n <- %R8
	@DEBUG_VALUE: allocate:__n <- %R8
	@DEBUG_VALUE: __len <- %R8
	@DEBUG_VALUE: _M_allocate:__n <- %R8
	@DEBUG_VALUE: size:this <- %R4
	@DEBUG_VALUE: _M_default_append:this <- %R4
	.loc	5 110 9                 @ /usr/bin/../lib/gcc/arm-linux-gnueabihf/6.3.0/../../../../include/c++/6.3.0/ext/new_allocator.h:110:9
	bl	_ZdlPv
.Ltmp950:
.LBB6_10:                               @ %_ZNSt12_Vector_baseIfSaIfEE13_M_deallocateEPfj.exit31
	@DEBUG_VALUE: __new_finish <- %R5
	@DEBUG_VALUE: __uninitialized_default_n_a<float *, unsigned int, float>:__first <- %R7
	@DEBUG_VALUE: __uninitialized_default_n<float *, unsigned int>:__first <- %R7
	@DEBUG_VALUE: __uninit_default_n<float *, unsigned int>:__first <- %R7
	@DEBUG_VALUE: fill_n<float *, unsigned int, float>:__first <- %R7
	@DEBUG_VALUE: __fill_n_a<float *, unsigned int, float>:__first <- %R7
	@DEBUG_VALUE: allocate:__n <- %R8
	@DEBUG_VALUE: allocate:__n <- %R8
	@DEBUG_VALUE: __len <- %R8
	@DEBUG_VALUE: _M_allocate:__n <- %R8
	@DEBUG_VALUE: size:this <- %R4
	@DEBUG_VALUE: _M_default_append:this <- %R4
	.loc	57 581 31               @ /usr/bin/../lib/gcc/arm-linux-gnueabihf/6.3.0/../../../../include/c++/6.3.0/bits/vector.tcc:581:31
	str	r6, [r4]
	.loc	57 583 54               @ /usr/bin/../lib/gcc/arm-linux-gnueabihf/6.3.0/../../../../include/c++/6.3.0/bits/vector.tcc:583:54
	add	r0, r6, r8, lsl #2
	.loc	57 582 32               @ /usr/bin/../lib/gcc/arm-linux-gnueabihf/6.3.0/../../../../include/c++/6.3.0/bits/vector.tcc:582:32
	str	r5, [r4, #4]
	.loc	57 583 40               @ /usr/bin/../lib/gcc/arm-linux-gnueabihf/6.3.0/../../../../include/c++/6.3.0/bits/vector.tcc:583:40
	str	r0, [r4, #8]
.Ltmp951:
.LBB6_11:
	@DEBUG_VALUE: _M_default_append:this <- %R4
	.loc	57 586 5 discriminator 2 @ /usr/bin/../lib/gcc/arm-linux-gnueabihf/6.3.0/../../../../include/c++/6.3.0/bits/vector.tcc:586:5
	pop	{r4, r5, r6, r7, r8, r10, r11, pc}
.Ltmp952:
.LBB6_12:                               @ %_ZSt27__uninitialized_default_n_aIPfjfET_S1_T0_RSaIT1_E.exit
	@DEBUG_VALUE: _M_default_append:this <- %R4
	@DEBUG_VALUE: _M_default_append:__n <- %R5
	@DEBUG_VALUE: __uninitialized_default_n<float *, unsigned int>:__assignable <- 1
	@DEBUG_VALUE: __niter <- %R5
	.loc	58 754 11               @ /usr/bin/../lib/gcc/arm-linux-gnueabihf/6.3.0/../../../../include/c++/6.3.0/bits/stl_algobase.h:754:11
	lsl	r2, r5, #2
	mov	r0, r7
	mov	r1, #0
	bl	memset
	add	r0, r7, r5, lsl #2
.Ltmp953:
	.loc	57 548 32               @ /usr/bin/../lib/gcc/arm-linux-gnueabihf/6.3.0/../../../../include/c++/6.3.0/bits/vector.tcc:548:32
	str	r0, [r4, #4]
.Ltmp954:
	.loc	57 586 5 discriminator 2 @ /usr/bin/../lib/gcc/arm-linux-gnueabihf/6.3.0/../../../../include/c++/6.3.0/bits/vector.tcc:586:5
	pop	{r4, r5, r6, r7, r8, r10, r11, pc}
.Ltmp955:
.LBB6_13:
	@DEBUG_VALUE: _M_check_len:__n <- %R5
	@DEBUG_VALUE: size:this <- %R4
	@DEBUG_VALUE: _M_default_append:this <- %R4
	@DEBUG_VALUE: _M_default_append:__n <- %R5
	.loc	9 1423 4                @ /usr/bin/../lib/gcc/arm-linux-gnueabihf/6.3.0/../../../../include/c++/6.3.0/bits/stl_vector.h:1423:4
	movw	r0, :lower16:.L.str.47
	movt	r0, :upper16:.L.str.47
.Ltmp956:
	@DEBUG_VALUE: _M_check_len:__s <- %R0
	mov	lr, pc
	b	_ZSt20__throw_length_errorPKc
.Ltmp957:
.LBB6_14:
	@DEBUG_VALUE: _M_check_len:__len <- %R0
	@DEBUG_VALUE: allocate:__n <- %R8
	@DEBUG_VALUE: allocate:__n <- %R8
	@DEBUG_VALUE: __len <- %R8
	@DEBUG_VALUE: _M_allocate:__n <- %R8
	@DEBUG_VALUE: _M_check_len:__n <- %R5
	@DEBUG_VALUE: size:this <- %R4
	@DEBUG_VALUE: _M_default_append:this <- %R4
	@DEBUG_VALUE: _M_default_append:__n <- %R5
	.loc	5 102 4                 @ /usr/bin/../lib/gcc/arm-linux-gnueabihf/6.3.0/../../../../include/c++/6.3.0/ext/new_allocator.h:102:4
	mov	lr, pc
	b	_ZSt17__throw_bad_allocv
.Ltmp958:
.Lfunc_end6:
	.size	_ZNSt6vectorIfSaIfEE17_M_default_appendEj, .Lfunc_end6-_ZNSt6vectorIfSaIfEE17_M_default_appendEj
	.cfi_endproc
	.file	59 "/usr/bin/../lib/gcc/arm-linux-gnueabihf/6.3.0/../../../../include/c++/6.3.0/bits" "stl_uninitialized.h"
	.file	60 "/usr/bin/../lib/gcc/arm-linux-gnueabihf/6.3.0/../../../../include/c++/6.3.0/ext" "type_traits.h"
	.fnend

	.section	.text.startup,"ax",%progbits
	.p2align	2
	.type	_GLOBAL__sub_I_render.ii,%function
_GLOBAL__sub_I_render.ii:               @ @_GLOBAL__sub_I_render.ii
.Lfunc_begin7:
	.file	61 "/root/Bela/projects/Yinghao-final-2/build" "render.cpp"
	.loc	61 0 0                  @ /root/Bela/projects/Yinghao-final-2/build/render.cpp:0:0
	.fnstart
	.cfi_startproc
@ BB#0:
	.save	{r4, r5, r6, r7, r8, r10, r11, lr}
	push	{r4, r5, r6, r7, r8, r10, r11, lr}
.Ltmp959:
	.cfi_def_cfa_offset 32
.Ltmp960:
	.cfi_offset lr, -4
.Ltmp961:
	.cfi_offset r11, -8
.Ltmp962:
	.cfi_offset r10, -12
.Ltmp963:
	.cfi_offset r8, -16
.Ltmp964:
	.cfi_offset r7, -20
.Ltmp965:
	.cfi_offset r6, -24
.Ltmp966:
	.cfi_offset r5, -28
.Ltmp967:
	.cfi_offset r4, -32
	.setfp	r11, sp, #24
	add	r11, sp, #24
.Ltmp968:
	.cfi_def_cfa r11, 8
	.pad	#8
	sub	sp, sp, #8
.Ltmp969:
	.loc	31 110 25 prologue_end  @ /usr/bin/../lib/gcc/arm-linux-gnueabihf/6.3.0/../../../../include/c++/6.3.0/bits/basic_string.h:110:25
	movw	r5, :lower16:.L_MergedGlobals.4
	add	r1, sp, #4
.Ltmp970:
	@DEBUG_VALUE: _M_construct<const char *>:__dnew <- [%R1+0]
	movt	r5, :upper16:.L_MergedGlobals.4
	add	r0, r5, #44
	add	r6, r5, #36
.Ltmp971:
	@DEBUG_VALUE: _M_data:this <- %R6
	@DEBUG_VALUE: _M_length:this <- %R6
	@DEBUG_VALUE: _M_set_length:this <- %R6
	@DEBUG_VALUE: _M_data:this <- %R6
	@DEBUG_VALUE: _M_capacity:this <- %R6
	@DEBUG_VALUE: _M_data:this <- %R6
	@DEBUG_VALUE: _M_construct<const char *>:this <- %R6
	@DEBUG_VALUE: _M_construct_aux<const char *>:this <- %R6
	@DEBUG_VALUE: _M_construct<const char *>:this <- %R6
	@DEBUG_VALUE: basic_string:this <- %R6
	str	r0, [r5, #36]
.Ltmp972:
	.loc	56 215 12               @ /usr/bin/../lib/gcc/arm-linux-gnueabihf/6.3.0/../../../../include/c++/6.3.0/bits/basic_string.tcc:215:12
	mov	r0, #18
.Ltmp973:
	@DEBUG_VALUE: _M_construct<const char *>:__dnew <- 18
	.loc	56 219 14               @ /usr/bin/../lib/gcc/arm-linux-gnueabihf/6.3.0/../../../../include/c++/6.3.0/bits/basic_string.tcc:219:14
	mov	r2, #0
.Ltmp974:
	.loc	56 215 12               @ /usr/bin/../lib/gcc/arm-linux-gnueabihf/6.3.0/../../../../include/c++/6.3.0/bits/basic_string.tcc:215:12
	str	r0, [sp, #4]
.Ltmp975:
	.loc	56 219 14               @ /usr/bin/../lib/gcc/arm-linux-gnueabihf/6.3.0/../../../../include/c++/6.3.0/bits/basic_string.tcc:219:14
	mov	r0, r6
	mov	r4, #0
	bl	_ZNSt7__cxx1112basic_stringIcSt11char_traitsIcESaIcEE9_M_createERjj
.Ltmp976:
	@DEBUG_VALUE: _M_data:__p <- %R0
	@DEBUG_VALUE: _S_copy_chars:__p <- %R0
	@DEBUG_VALUE: _S_copy:__d <- %R0
	.loc	33 290 33               @ /usr/bin/../lib/gcc/arm-linux-gnueabihf/6.3.0/../../../../include/c++/6.3.0/bits/char_traits.h:290:33
	movw	r2, :lower16:.L.str
.Ltmp977:
	.loc	56 220 18               @ /usr/bin/../lib/gcc/arm-linux-gnueabihf/6.3.0/../../../../include/c++/6.3.0/bits/basic_string.tcc:220:18
	ldr	r1, [sp, #4]
.Ltmp978:
	@DEBUG_VALUE: _M_capacity:__capacity <- %R1
	@DEBUG_VALUE: _M_set_length:__n <- %R1
	@DEBUG_VALUE: _M_length:__length <- %R1
	@DEBUG_VALUE: _M_construct<const char *>:__dnew <- %R1
	.loc	33 290 33               @ /usr/bin/../lib/gcc/arm-linux-gnueabihf/6.3.0/../../../../include/c++/6.3.0/bits/char_traits.h:290:33
	movt	r2, :upper16:.L.str
	vld1.64	{d16, d17}, [r2]
	movw	r2, #30305
.Ltmp979:
	.loc	3 25 13 discriminator 6 @ /root/Bela/projects/Yinghao-final-2/render.cpp:25:13
	movw	r8, :lower16:__dso_handle
.Ltmp980:
	.loc	31 128 26               @ /usr/bin/../lib/gcc/arm-linux-gnueabihf/6.3.0/../../../../include/c++/6.3.0/bits/basic_string.h:128:26
	str	r0, [r5, #36]
.Ltmp981:
	.loc	3 25 13 discriminator 6 @ /root/Bela/projects/Yinghao-final-2/render.cpp:25:13
	movt	r8, :upper16:__dso_handle
.Ltmp982:
	.loc	31 160 31               @ /usr/bin/../lib/gcc/arm-linux-gnueabihf/6.3.0/../../../../include/c++/6.3.0/bits/basic_string.h:160:31
	str	r1, [r5, #44]
.Ltmp983:
	@DEBUG_VALUE: _S_copy:__n <- 18
	.loc	33 290 33               @ /usr/bin/../lib/gcc/arm-linux-gnueabihf/6.3.0/../../../../include/c++/6.3.0/bits/char_traits.h:290:33
	vst1.8	{d16, d17}, [r0]!
.Ltmp984:
	strh	r2, [r0]
.Ltmp985:
	.loc	3 25 13 discriminator 6 @ /root/Bela/projects/Yinghao-final-2/render.cpp:25:13
	mov	r2, r8
.Ltmp986:
	.loc	31 132 26               @ /usr/bin/../lib/gcc/arm-linux-gnueabihf/6.3.0/../../../../include/c++/6.3.0/bits/basic_string.h:132:26
	str	r1, [r5, #40]
.Ltmp987:
	.loc	31 136 28               @ /usr/bin/../lib/gcc/arm-linux-gnueabihf/6.3.0/../../../../include/c++/6.3.0/bits/basic_string.h:136:28
	ldr	r0, [r5, #36]
.Ltmp988:
	.loc	33 243 14               @ /usr/bin/../lib/gcc/arm-linux-gnueabihf/6.3.0/../../../../include/c++/6.3.0/bits/char_traits.h:243:14
	strb	r4, [r0, r1]
.Ltmp989:
	.loc	3 25 13 discriminator 6 @ /root/Bela/projects/Yinghao-final-2/render.cpp:25:13
	movw	r0, :lower16:_ZNSt7__cxx1112basic_stringIcSt11char_traitsIcESaIcEED2Ev
	movt	r0, :upper16:_ZNSt7__cxx1112basic_stringIcSt11char_traitsIcESaIcEED2Ev
	mov	r1, r6
.Ltmp990:
	bl	__cxa_atexit
.Ltmp991:
	.loc	9 87 34                 @ /usr/bin/../lib/gcc/arm-linux-gnueabihf/6.3.0/../../../../include/c++/6.3.0/bits/stl_vector.h:87:34
	movw	r1, :lower16:gPlayer
	vmov.i32	q8, #0x0
	movt	r1, :upper16:gPlayer
.Ltmp992:
	@DEBUG_VALUE: MonoFilePlayer:this <- %R1
	.loc	3 28 16 discriminator 1 @ /root/Bela/projects/Yinghao-final-2/render.cpp:28:16
	mov	r2, r8
.Ltmp993:
	.loc	9 87 34                 @ /usr/bin/../lib/gcc/arm-linux-gnueabihf/6.3.0/../../../../include/c++/6.3.0/bits/stl_vector.h:87:34
	mov	r0, r1
	vst1.32	{d16, d17}, [r0]!
	strh	r4, [r0]
.Ltmp994:
	.loc	3 28 16 discriminator 1 @ /root/Bela/projects/Yinghao-final-2/render.cpp:28:16
	movw	r0, :lower16:_ZN14MonoFilePlayerD2Ev
	movt	r0, :upper16:_ZN14MonoFilePlayerD2Ev
	bl	__cxa_atexit
.Ltmp995:
	.loc	9 87 22                 @ /usr/bin/../lib/gcc/arm-linux-gnueabihf/6.3.0/../../../../include/c++/6.3.0/bits/stl_vector.h:87:22
	movw	r7, :lower16:.L_MergedGlobals
.Ltmp996:
	.loc	3 31 20 discriminator 1 @ /root/Bela/projects/Yinghao-final-2/render.cpp:31:20
	movw	r6, :lower16:_ZNSt6vectorIfSaIfEED2Ev
.Ltmp997:
	.loc	9 87 22                 @ /usr/bin/../lib/gcc/arm-linux-gnueabihf/6.3.0/../../../../include/c++/6.3.0/bits/stl_vector.h:87:22
	movt	r7, :upper16:.L_MergedGlobals
.Ltmp998:
	.loc	3 31 20 discriminator 1 @ /root/Bela/projects/Yinghao-final-2/render.cpp:31:20
	movt	r6, :upper16:_ZNSt6vectorIfSaIfEED2Ev
.Ltmp999:
	.loc	9 87 22                 @ /usr/bin/../lib/gcc/arm-linux-gnueabihf/6.3.0/../../../../include/c++/6.3.0/bits/stl_vector.h:87:22
	mov	r1, r7
.Ltmp1000:
	.loc	3 31 20 discriminator 1 @ /root/Bela/projects/Yinghao-final-2/render.cpp:31:20
	mov	r0, r6
.Ltmp1001:
	.loc	9 87 22                 @ /usr/bin/../lib/gcc/arm-linux-gnueabihf/6.3.0/../../../../include/c++/6.3.0/bits/stl_vector.h:87:22
	str	r4, [r1, #40]!
.Ltmp1002:
	@DEBUG_VALUE: vector:this <- %R1
	.loc	3 31 20 discriminator 1 @ /root/Bela/projects/Yinghao-final-2/render.cpp:31:20
	mov	r2, r8
.Ltmp1003:
	.loc	9 87 34                 @ /usr/bin/../lib/gcc/arm-linux-gnueabihf/6.3.0/../../../../include/c++/6.3.0/bits/stl_vector.h:87:34
	str	r4, [r7, #44]
	.loc	9 87 47 is_stmt 0       @ /usr/bin/../lib/gcc/arm-linux-gnueabihf/6.3.0/../../../../include/c++/6.3.0/bits/stl_vector.h:87:47
	str	r4, [r7, #48]
.Ltmp1004:
	.loc	3 31 20 is_stmt 1 discriminator 1 @ /root/Bela/projects/Yinghao-final-2/render.cpp:31:20
	bl	__cxa_atexit
.Ltmp1005:
	.loc	9 87 22                 @ /usr/bin/../lib/gcc/arm-linux-gnueabihf/6.3.0/../../../../include/c++/6.3.0/bits/stl_vector.h:87:22
	mov	r1, r7
.Ltmp1006:
	.loc	3 31 39 discriminator 1 @ /root/Bela/projects/Yinghao-final-2/render.cpp:31:39
	mov	r0, r6
.Ltmp1007:
	.loc	9 87 22                 @ /usr/bin/../lib/gcc/arm-linux-gnueabihf/6.3.0/../../../../include/c++/6.3.0/bits/stl_vector.h:87:22
	str	r4, [r1, #52]!
.Ltmp1008:
	.loc	3 31 39 discriminator 1 @ /root/Bela/projects/Yinghao-final-2/render.cpp:31:39
	mov	r2, r8
.Ltmp1009:
	.loc	9 87 34                 @ /usr/bin/../lib/gcc/arm-linux-gnueabihf/6.3.0/../../../../include/c++/6.3.0/bits/stl_vector.h:87:34
	str	r4, [r7, #56]
	.loc	9 87 47 is_stmt 0       @ /usr/bin/../lib/gcc/arm-linux-gnueabihf/6.3.0/../../../../include/c++/6.3.0/bits/stl_vector.h:87:47
	str	r4, [r7, #60]
.Ltmp1010:
	.loc	3 31 39 is_stmt 1 discriminator 1 @ /root/Bela/projects/Yinghao-final-2/render.cpp:31:39
	bl	__cxa_atexit
.Ltmp1011:
	.loc	9 87 22                 @ /usr/bin/../lib/gcc/arm-linux-gnueabihf/6.3.0/../../../../include/c++/6.3.0/bits/stl_vector.h:87:22
	mov	r1, r7
.Ltmp1012:
	.loc	3 31 59 discriminator 1 @ /root/Bela/projects/Yinghao-final-2/render.cpp:31:59
	mov	r0, r6
.Ltmp1013:
	.loc	9 87 22                 @ /usr/bin/../lib/gcc/arm-linux-gnueabihf/6.3.0/../../../../include/c++/6.3.0/bits/stl_vector.h:87:22
	str	r4, [r1, #64]!
.Ltmp1014:
	.loc	3 31 59 discriminator 1 @ /root/Bela/projects/Yinghao-final-2/render.cpp:31:59
	mov	r2, r8
.Ltmp1015:
	.loc	9 87 34                 @ /usr/bin/../lib/gcc/arm-linux-gnueabihf/6.3.0/../../../../include/c++/6.3.0/bits/stl_vector.h:87:34
	str	r4, [r7, #68]
	.loc	9 87 47 is_stmt 0       @ /usr/bin/../lib/gcc/arm-linux-gnueabihf/6.3.0/../../../../include/c++/6.3.0/bits/stl_vector.h:87:47
	str	r4, [r7, #72]
.Ltmp1016:
	.loc	3 31 59 is_stmt 1 discriminator 1 @ /root/Bela/projects/Yinghao-final-2/render.cpp:31:59
	bl	__cxa_atexit
.Ltmp1017:
	.loc	9 87 22                 @ /usr/bin/../lib/gcc/arm-linux-gnueabihf/6.3.0/../../../../include/c++/6.3.0/bits/stl_vector.h:87:22
	mov	r1, r7
.Ltmp1018:
	.loc	3 31 79 discriminator 1 @ /root/Bela/projects/Yinghao-final-2/render.cpp:31:79
	mov	r0, r6
.Ltmp1019:
	.loc	9 87 22                 @ /usr/bin/../lib/gcc/arm-linux-gnueabihf/6.3.0/../../../../include/c++/6.3.0/bits/stl_vector.h:87:22
	str	r4, [r1, #76]!
.Ltmp1020:
	.loc	3 31 79 discriminator 1 @ /root/Bela/projects/Yinghao-final-2/render.cpp:31:79
	mov	r2, r8
.Ltmp1021:
	.loc	9 87 34                 @ /usr/bin/../lib/gcc/arm-linux-gnueabihf/6.3.0/../../../../include/c++/6.3.0/bits/stl_vector.h:87:34
	str	r4, [r7, #80]
	.loc	9 87 47 is_stmt 0       @ /usr/bin/../lib/gcc/arm-linux-gnueabihf/6.3.0/../../../../include/c++/6.3.0/bits/stl_vector.h:87:47
	str	r4, [r7, #84]
.Ltmp1022:
	.loc	3 31 79 is_stmt 1 discriminator 1 @ /root/Bela/projects/Yinghao-final-2/render.cpp:31:79
	bl	__cxa_atexit
.Ltmp1023:
	.loc	9 87 22                 @ /usr/bin/../lib/gcc/arm-linux-gnueabihf/6.3.0/../../../../include/c++/6.3.0/bits/stl_vector.h:87:22
	mov	r1, r7
.Ltmp1024:
	.loc	3 31 100 discriminator 1 @ /root/Bela/projects/Yinghao-final-2/render.cpp:31:100
	mov	r0, r6
.Ltmp1025:
	.loc	9 87 22                 @ /usr/bin/../lib/gcc/arm-linux-gnueabihf/6.3.0/../../../../include/c++/6.3.0/bits/stl_vector.h:87:22
	str	r4, [r1, #88]!
.Ltmp1026:
	.loc	3 31 100 discriminator 1 @ /root/Bela/projects/Yinghao-final-2/render.cpp:31:100
	mov	r2, r8
.Ltmp1027:
	.loc	9 87 34                 @ /usr/bin/../lib/gcc/arm-linux-gnueabihf/6.3.0/../../../../include/c++/6.3.0/bits/stl_vector.h:87:34
	str	r4, [r7, #92]
	.loc	9 87 47 is_stmt 0       @ /usr/bin/../lib/gcc/arm-linux-gnueabihf/6.3.0/../../../../include/c++/6.3.0/bits/stl_vector.h:87:47
	str	r4, [r7, #96]
.Ltmp1028:
	.loc	3 31 100 is_stmt 1 discriminator 1 @ /root/Bela/projects/Yinghao-final-2/render.cpp:31:100
	bl	__cxa_atexit
.Ltmp1029:
	.loc	9 87 22                 @ /usr/bin/../lib/gcc/arm-linux-gnueabihf/6.3.0/../../../../include/c++/6.3.0/bits/stl_vector.h:87:22
	mov	r1, r7
.Ltmp1030:
	.loc	3 32 20 discriminator 1 @ /root/Bela/projects/Yinghao-final-2/render.cpp:32:20
	mov	r0, r6
.Ltmp1031:
	.loc	9 87 22                 @ /usr/bin/../lib/gcc/arm-linux-gnueabihf/6.3.0/../../../../include/c++/6.3.0/bits/stl_vector.h:87:22
	str	r4, [r1, #100]!
.Ltmp1032:
	.loc	3 32 20 discriminator 1 @ /root/Bela/projects/Yinghao-final-2/render.cpp:32:20
	mov	r2, r8
.Ltmp1033:
	.loc	9 87 34                 @ /usr/bin/../lib/gcc/arm-linux-gnueabihf/6.3.0/../../../../include/c++/6.3.0/bits/stl_vector.h:87:34
	str	r4, [r7, #104]
	.loc	9 87 47 is_stmt 0       @ /usr/bin/../lib/gcc/arm-linux-gnueabihf/6.3.0/../../../../include/c++/6.3.0/bits/stl_vector.h:87:47
	str	r4, [r7, #108]
.Ltmp1034:
	.loc	3 32 20 is_stmt 1 discriminator 1 @ /root/Bela/projects/Yinghao-final-2/render.cpp:32:20
	bl	__cxa_atexit
.Ltmp1035:
	.loc	9 87 22                 @ /usr/bin/../lib/gcc/arm-linux-gnueabihf/6.3.0/../../../../include/c++/6.3.0/bits/stl_vector.h:87:22
	str	r4, [r7, #112]!
.Ltmp1036:
	.loc	3 32 33 discriminator 1 @ /root/Bela/projects/Yinghao-final-2/render.cpp:32:33
	mov	r0, r6
	mov	r2, r8
	mov	r1, r7
.Ltmp1037:
	.loc	9 87 34                 @ /usr/bin/../lib/gcc/arm-linux-gnueabihf/6.3.0/../../../../include/c++/6.3.0/bits/stl_vector.h:87:34
	str	r4, [r7, #4]
	.loc	9 87 47 is_stmt 0       @ /usr/bin/../lib/gcc/arm-linux-gnueabihf/6.3.0/../../../../include/c++/6.3.0/bits/stl_vector.h:87:47
	str	r4, [r7, #8]
.Ltmp1038:
	.loc	3 32 33 is_stmt 1 discriminator 1 @ /root/Bela/projects/Yinghao-final-2/render.cpp:32:33
	bl	__cxa_atexit
.Ltmp1039:
	.loc	9 87 22                 @ /usr/bin/../lib/gcc/arm-linux-gnueabihf/6.3.0/../../../../include/c++/6.3.0/bits/stl_vector.h:87:22
	movw	r7, :lower16:.L_MergedGlobals.3
.Ltmp1040:
	.loc	3 32 47 discriminator 1 @ /root/Bela/projects/Yinghao-final-2/render.cpp:32:47
	mov	r0, r6
.Ltmp1041:
	.loc	9 87 22                 @ /usr/bin/../lib/gcc/arm-linux-gnueabihf/6.3.0/../../../../include/c++/6.3.0/bits/stl_vector.h:87:22
	movt	r7, :upper16:.L_MergedGlobals.3
.Ltmp1042:
	.loc	3 32 47 discriminator 1 @ /root/Bela/projects/Yinghao-final-2/render.cpp:32:47
	mov	r2, r8
	mov	r1, r7
.Ltmp1043:
	.loc	9 87 22                 @ /usr/bin/../lib/gcc/arm-linux-gnueabihf/6.3.0/../../../../include/c++/6.3.0/bits/stl_vector.h:87:22
	str	r4, [r7]
	.loc	9 87 34 is_stmt 0       @ /usr/bin/../lib/gcc/arm-linux-gnueabihf/6.3.0/../../../../include/c++/6.3.0/bits/stl_vector.h:87:34
	str	r4, [r7, #4]
	.loc	9 87 47                 @ /usr/bin/../lib/gcc/arm-linux-gnueabihf/6.3.0/../../../../include/c++/6.3.0/bits/stl_vector.h:87:47
	str	r4, [r7, #8]
.Ltmp1044:
	.loc	3 32 47 is_stmt 1 discriminator 1 @ /root/Bela/projects/Yinghao-final-2/render.cpp:32:47
	bl	__cxa_atexit
.Ltmp1045:
	.loc	9 87 22                 @ /usr/bin/../lib/gcc/arm-linux-gnueabihf/6.3.0/../../../../include/c++/6.3.0/bits/stl_vector.h:87:22
	mov	r1, r7
.Ltmp1046:
	.loc	3 32 61 discriminator 1 @ /root/Bela/projects/Yinghao-final-2/render.cpp:32:61
	mov	r0, r6
.Ltmp1047:
	.loc	9 87 22                 @ /usr/bin/../lib/gcc/arm-linux-gnueabihf/6.3.0/../../../../include/c++/6.3.0/bits/stl_vector.h:87:22
	str	r4, [r1, #12]!
.Ltmp1048:
	.loc	3 32 61 discriminator 1 @ /root/Bela/projects/Yinghao-final-2/render.cpp:32:61
	mov	r2, r8
.Ltmp1049:
	.loc	9 87 34                 @ /usr/bin/../lib/gcc/arm-linux-gnueabihf/6.3.0/../../../../include/c++/6.3.0/bits/stl_vector.h:87:34
	str	r4, [r7, #16]
	.loc	9 87 47 is_stmt 0       @ /usr/bin/../lib/gcc/arm-linux-gnueabihf/6.3.0/../../../../include/c++/6.3.0/bits/stl_vector.h:87:47
	str	r4, [r7, #20]
.Ltmp1050:
	.loc	3 32 61 is_stmt 1 discriminator 1 @ /root/Bela/projects/Yinghao-final-2/render.cpp:32:61
	bl	__cxa_atexit
.Ltmp1051:
	.loc	9 87 22                 @ /usr/bin/../lib/gcc/arm-linux-gnueabihf/6.3.0/../../../../include/c++/6.3.0/bits/stl_vector.h:87:22
	mov	r1, r7
.Ltmp1052:
	.loc	3 32 76 discriminator 1 @ /root/Bela/projects/Yinghao-final-2/render.cpp:32:76
	mov	r0, r6
.Ltmp1053:
	.loc	9 87 22                 @ /usr/bin/../lib/gcc/arm-linux-gnueabihf/6.3.0/../../../../include/c++/6.3.0/bits/stl_vector.h:87:22
	str	r4, [r1, #24]!
.Ltmp1054:
	.loc	3 32 76 discriminator 1 @ /root/Bela/projects/Yinghao-final-2/render.cpp:32:76
	mov	r2, r8
.Ltmp1055:
	.loc	9 87 34                 @ /usr/bin/../lib/gcc/arm-linux-gnueabihf/6.3.0/../../../../include/c++/6.3.0/bits/stl_vector.h:87:34
	str	r4, [r7, #28]
	.loc	9 87 47 is_stmt 0       @ /usr/bin/../lib/gcc/arm-linux-gnueabihf/6.3.0/../../../../include/c++/6.3.0/bits/stl_vector.h:87:47
	str	r4, [r7, #32]
.Ltmp1056:
	.loc	3 32 76 is_stmt 1 discriminator 1 @ /root/Bela/projects/Yinghao-final-2/render.cpp:32:76
	bl	__cxa_atexit
.Ltmp1057:
	.loc	9 87 22                 @ /usr/bin/../lib/gcc/arm-linux-gnueabihf/6.3.0/../../../../include/c++/6.3.0/bits/stl_vector.h:87:22
	mov	r1, r7
.Ltmp1058:
	.loc	3 33 20 discriminator 1 @ /root/Bela/projects/Yinghao-final-2/render.cpp:33:20
	mov	r0, r6
.Ltmp1059:
	.loc	9 87 22                 @ /usr/bin/../lib/gcc/arm-linux-gnueabihf/6.3.0/../../../../include/c++/6.3.0/bits/stl_vector.h:87:22
	str	r4, [r1, #36]!
.Ltmp1060:
	.loc	3 33 20 discriminator 1 @ /root/Bela/projects/Yinghao-final-2/render.cpp:33:20
	mov	r2, r8
.Ltmp1061:
	.loc	9 87 34                 @ /usr/bin/../lib/gcc/arm-linux-gnueabihf/6.3.0/../../../../include/c++/6.3.0/bits/stl_vector.h:87:34
	str	r4, [r7, #40]
	.loc	9 87 47 is_stmt 0       @ /usr/bin/../lib/gcc/arm-linux-gnueabihf/6.3.0/../../../../include/c++/6.3.0/bits/stl_vector.h:87:47
	str	r4, [r7, #44]
.Ltmp1062:
	.loc	3 33 20 is_stmt 1 discriminator 1 @ /root/Bela/projects/Yinghao-final-2/render.cpp:33:20
	bl	__cxa_atexit
.Ltmp1063:
	.loc	9 87 22                 @ /usr/bin/../lib/gcc/arm-linux-gnueabihf/6.3.0/../../../../include/c++/6.3.0/bits/stl_vector.h:87:22
	mov	r1, r7
.Ltmp1064:
	.loc	3 33 33 discriminator 1 @ /root/Bela/projects/Yinghao-final-2/render.cpp:33:33
	mov	r0, r6
.Ltmp1065:
	.loc	9 87 22                 @ /usr/bin/../lib/gcc/arm-linux-gnueabihf/6.3.0/../../../../include/c++/6.3.0/bits/stl_vector.h:87:22
	str	r4, [r1, #48]!
.Ltmp1066:
	.loc	3 33 33 discriminator 1 @ /root/Bela/projects/Yinghao-final-2/render.cpp:33:33
	mov	r2, r8
.Ltmp1067:
	.loc	9 87 34                 @ /usr/bin/../lib/gcc/arm-linux-gnueabihf/6.3.0/../../../../include/c++/6.3.0/bits/stl_vector.h:87:34
	str	r4, [r7, #52]
	.loc	9 87 47 is_stmt 0       @ /usr/bin/../lib/gcc/arm-linux-gnueabihf/6.3.0/../../../../include/c++/6.3.0/bits/stl_vector.h:87:47
	str	r4, [r7, #56]
.Ltmp1068:
	.loc	3 33 33 is_stmt 1 discriminator 1 @ /root/Bela/projects/Yinghao-final-2/render.cpp:33:33
	bl	__cxa_atexit
.Ltmp1069:
	.loc	9 87 22                 @ /usr/bin/../lib/gcc/arm-linux-gnueabihf/6.3.0/../../../../include/c++/6.3.0/bits/stl_vector.h:87:22
	mov	r1, r7
.Ltmp1070:
	.loc	3 33 47 discriminator 1 @ /root/Bela/projects/Yinghao-final-2/render.cpp:33:47
	mov	r0, r6
.Ltmp1071:
	.loc	9 87 22                 @ /usr/bin/../lib/gcc/arm-linux-gnueabihf/6.3.0/../../../../include/c++/6.3.0/bits/stl_vector.h:87:22
	str	r4, [r1, #60]!
.Ltmp1072:
	.loc	3 33 47 discriminator 1 @ /root/Bela/projects/Yinghao-final-2/render.cpp:33:47
	mov	r2, r8
.Ltmp1073:
	.loc	9 87 34                 @ /usr/bin/../lib/gcc/arm-linux-gnueabihf/6.3.0/../../../../include/c++/6.3.0/bits/stl_vector.h:87:34
	str	r4, [r7, #64]
	.loc	9 87 47 is_stmt 0       @ /usr/bin/../lib/gcc/arm-linux-gnueabihf/6.3.0/../../../../include/c++/6.3.0/bits/stl_vector.h:87:47
	str	r4, [r7, #68]
.Ltmp1074:
	.loc	3 33 47 is_stmt 1 discriminator 1 @ /root/Bela/projects/Yinghao-final-2/render.cpp:33:47
	bl	__cxa_atexit
.Ltmp1075:
	.loc	9 87 22                 @ /usr/bin/../lib/gcc/arm-linux-gnueabihf/6.3.0/../../../../include/c++/6.3.0/bits/stl_vector.h:87:22
	mov	r1, r7
.Ltmp1076:
	.loc	3 33 61 discriminator 1 @ /root/Bela/projects/Yinghao-final-2/render.cpp:33:61
	mov	r0, r6
.Ltmp1077:
	.loc	9 87 22                 @ /usr/bin/../lib/gcc/arm-linux-gnueabihf/6.3.0/../../../../include/c++/6.3.0/bits/stl_vector.h:87:22
	str	r4, [r1, #72]!
.Ltmp1078:
	.loc	3 33 61 discriminator 1 @ /root/Bela/projects/Yinghao-final-2/render.cpp:33:61
	mov	r2, r8
.Ltmp1079:
	.loc	9 87 34                 @ /usr/bin/../lib/gcc/arm-linux-gnueabihf/6.3.0/../../../../include/c++/6.3.0/bits/stl_vector.h:87:34
	str	r4, [r7, #76]
	.loc	9 87 47 is_stmt 0       @ /usr/bin/../lib/gcc/arm-linux-gnueabihf/6.3.0/../../../../include/c++/6.3.0/bits/stl_vector.h:87:47
	str	r4, [r7, #80]
.Ltmp1080:
	.loc	3 33 61 is_stmt 1 discriminator 1 @ /root/Bela/projects/Yinghao-final-2/render.cpp:33:61
	bl	__cxa_atexit
.Ltmp1081:
	.loc	9 87 22                 @ /usr/bin/../lib/gcc/arm-linux-gnueabihf/6.3.0/../../../../include/c++/6.3.0/bits/stl_vector.h:87:22
	mov	r1, r7
.Ltmp1082:
	.loc	3 33 76 discriminator 1 @ /root/Bela/projects/Yinghao-final-2/render.cpp:33:76
	mov	r0, r6
.Ltmp1083:
	.loc	9 87 22                 @ /usr/bin/../lib/gcc/arm-linux-gnueabihf/6.3.0/../../../../include/c++/6.3.0/bits/stl_vector.h:87:22
	str	r4, [r1, #84]!
.Ltmp1084:
	.loc	3 33 76 discriminator 1 @ /root/Bela/projects/Yinghao-final-2/render.cpp:33:76
	mov	r2, r8
.Ltmp1085:
	.loc	9 87 34                 @ /usr/bin/../lib/gcc/arm-linux-gnueabihf/6.3.0/../../../../include/c++/6.3.0/bits/stl_vector.h:87:34
	str	r4, [r7, #88]
	.loc	9 87 47 is_stmt 0       @ /usr/bin/../lib/gcc/arm-linux-gnueabihf/6.3.0/../../../../include/c++/6.3.0/bits/stl_vector.h:87:47
	str	r4, [r7, #92]
.Ltmp1086:
	.loc	3 33 76 is_stmt 1 discriminator 1 @ /root/Bela/projects/Yinghao-final-2/render.cpp:33:76
	bl	__cxa_atexit
.Ltmp1087:
	.loc	9 87 22                 @ /usr/bin/../lib/gcc/arm-linux-gnueabihf/6.3.0/../../../../include/c++/6.3.0/bits/stl_vector.h:87:22
	mov	r1, r7
.Ltmp1088:
	.loc	3 34 20 discriminator 1 @ /root/Bela/projects/Yinghao-final-2/render.cpp:34:20
	mov	r0, r6
.Ltmp1089:
	.loc	9 87 22                 @ /usr/bin/../lib/gcc/arm-linux-gnueabihf/6.3.0/../../../../include/c++/6.3.0/bits/stl_vector.h:87:22
	str	r4, [r1, #96]!
.Ltmp1090:
	.loc	3 34 20 discriminator 1 @ /root/Bela/projects/Yinghao-final-2/render.cpp:34:20
	mov	r2, r8
.Ltmp1091:
	.loc	9 87 34                 @ /usr/bin/../lib/gcc/arm-linux-gnueabihf/6.3.0/../../../../include/c++/6.3.0/bits/stl_vector.h:87:34
	str	r4, [r7, #100]
	.loc	9 87 47 is_stmt 0       @ /usr/bin/../lib/gcc/arm-linux-gnueabihf/6.3.0/../../../../include/c++/6.3.0/bits/stl_vector.h:87:47
	str	r4, [r7, #104]
.Ltmp1092:
	.loc	3 34 20 is_stmt 1 discriminator 1 @ /root/Bela/projects/Yinghao-final-2/render.cpp:34:20
	bl	__cxa_atexit
.Ltmp1093:
	.loc	9 87 22                 @ /usr/bin/../lib/gcc/arm-linux-gnueabihf/6.3.0/../../../../include/c++/6.3.0/bits/stl_vector.h:87:22
	str	r4, [r7, #108]!
.Ltmp1094:
	.loc	3 34 33 discriminator 1 @ /root/Bela/projects/Yinghao-final-2/render.cpp:34:33
	mov	r0, r6
	mov	r2, r8
	mov	r1, r7
.Ltmp1095:
	.loc	9 87 34                 @ /usr/bin/../lib/gcc/arm-linux-gnueabihf/6.3.0/../../../../include/c++/6.3.0/bits/stl_vector.h:87:34
	str	r4, [r7, #4]
	.loc	9 87 47 is_stmt 0       @ /usr/bin/../lib/gcc/arm-linux-gnueabihf/6.3.0/../../../../include/c++/6.3.0/bits/stl_vector.h:87:47
	str	r4, [r7, #8]
.Ltmp1096:
	.loc	3 34 33 is_stmt 1 discriminator 1 @ /root/Bela/projects/Yinghao-final-2/render.cpp:34:33
	bl	__cxa_atexit
.Ltmp1097:
	.loc	3 34 47 is_stmt 0 discriminator 1 @ /root/Bela/projects/Yinghao-final-2/render.cpp:34:47
	mov	r0, r6
	mov	r1, r5
	mov	r2, r8
.Ltmp1098:
	.loc	9 87 22 is_stmt 1       @ /usr/bin/../lib/gcc/arm-linux-gnueabihf/6.3.0/../../../../include/c++/6.3.0/bits/stl_vector.h:87:22
	str	r4, [r5]
	.loc	9 87 34 is_stmt 0       @ /usr/bin/../lib/gcc/arm-linux-gnueabihf/6.3.0/../../../../include/c++/6.3.0/bits/stl_vector.h:87:34
	str	r4, [r5, #4]
	.loc	9 87 47                 @ /usr/bin/../lib/gcc/arm-linux-gnueabihf/6.3.0/../../../../include/c++/6.3.0/bits/stl_vector.h:87:47
	str	r4, [r5, #8]
.Ltmp1099:
	.loc	3 34 47 is_stmt 1 discriminator 1 @ /root/Bela/projects/Yinghao-final-2/render.cpp:34:47
	bl	__cxa_atexit
.Ltmp1100:
	.loc	9 87 22                 @ /usr/bin/../lib/gcc/arm-linux-gnueabihf/6.3.0/../../../../include/c++/6.3.0/bits/stl_vector.h:87:22
	mov	r1, r5
.Ltmp1101:
	.loc	3 34 61 discriminator 1 @ /root/Bela/projects/Yinghao-final-2/render.cpp:34:61
	mov	r0, r6
.Ltmp1102:
	.loc	9 87 22                 @ /usr/bin/../lib/gcc/arm-linux-gnueabihf/6.3.0/../../../../include/c++/6.3.0/bits/stl_vector.h:87:22
	str	r4, [r1, #12]!
.Ltmp1103:
	.loc	3 34 61 discriminator 1 @ /root/Bela/projects/Yinghao-final-2/render.cpp:34:61
	mov	r2, r8
.Ltmp1104:
	.loc	9 87 34                 @ /usr/bin/../lib/gcc/arm-linux-gnueabihf/6.3.0/../../../../include/c++/6.3.0/bits/stl_vector.h:87:34
	str	r4, [r5, #16]
	.loc	9 87 47 is_stmt 0       @ /usr/bin/../lib/gcc/arm-linux-gnueabihf/6.3.0/../../../../include/c++/6.3.0/bits/stl_vector.h:87:47
	str	r4, [r5, #20]
.Ltmp1105:
	.loc	3 34 61 is_stmt 1 discriminator 1 @ /root/Bela/projects/Yinghao-final-2/render.cpp:34:61
	bl	__cxa_atexit
.Ltmp1106:
	.loc	9 87 22                 @ /usr/bin/../lib/gcc/arm-linux-gnueabihf/6.3.0/../../../../include/c++/6.3.0/bits/stl_vector.h:87:22
	str	r4, [r5, #24]!
.Ltmp1107:
	.loc	3 34 76 discriminator 1 @ /root/Bela/projects/Yinghao-final-2/render.cpp:34:76
	mov	r0, r6
	mov	r2, r8
	mov	r1, r5
.Ltmp1108:
	.loc	9 87 34                 @ /usr/bin/../lib/gcc/arm-linux-gnueabihf/6.3.0/../../../../include/c++/6.3.0/bits/stl_vector.h:87:34
	str	r4, [r5, #4]
	.loc	9 87 47 is_stmt 0       @ /usr/bin/../lib/gcc/arm-linux-gnueabihf/6.3.0/../../../../include/c++/6.3.0/bits/stl_vector.h:87:47
	str	r4, [r5, #8]
.Ltmp1109:
	.loc	3 34 76 is_stmt 1 discriminator 1 @ /root/Bela/projects/Yinghao-final-2/render.cpp:34:76
	bl	__cxa_atexit
.Ltmp1110:
	.loc	3 45 5                  @ /root/Bela/projects/Yinghao-final-2/render.cpp:45:5
	movw	r6, :lower16:gGui
	movt	r6, :upper16:gGui
	mov	r0, r6
	bl	_ZN3GuiC1Ev
	.loc	3 45 5 is_stmt 0 discriminator 1 @ /root/Bela/projects/Yinghao-final-2/render.cpp:45:5
	movw	r0, :lower16:_ZN3GuiD1Ev
	mov	r1, r6
	movt	r0, :upper16:_ZN3GuiD1Ev
	mov	r2, r8
	bl	__cxa_atexit
.Ltmp1111:
	.loc	3 46 15 is_stmt 1       @ /root/Bela/projects/Yinghao-final-2/render.cpp:46:15
	add	r5, r5, #36
	mov	r0, r5
	bl	_ZN13GuiControllerC1Ev
	.loc	3 46 15 is_stmt 0 discriminator 1 @ /root/Bela/projects/Yinghao-final-2/render.cpp:46:15
	movw	r0, :lower16:_ZN13GuiControllerD1Ev
	mov	r1, r5
	movt	r0, :upper16:_ZN13GuiControllerD1Ev
	mov	r2, r8
	bl	__cxa_atexit
.Ltmp1112:
	.loc	3 53 7 is_stmt 1        @ /root/Bela/projects/Yinghao-final-2/render.cpp:53:7
	movw	r5, :lower16:gScope
	movt	r5, :upper16:gScope
	mov	r0, r5
	bl	_ZN5ScopeC1Ev
	.loc	3 53 7 is_stmt 0 discriminator 1 @ /root/Bela/projects/Yinghao-final-2/render.cpp:53:7
	movw	r0, :lower16:_ZN5ScopeD1Ev
	mov	r1, r5
	movt	r0, :upper16:_ZN5ScopeD1Ev
	mov	r2, r8
	bl	__cxa_atexit
.Ltmp1113:
	.loc	3 55 11 is_stmt 1 discriminator 1 @ /root/Bela/projects/Yinghao-final-2/render.cpp:55:11
	movw	r5, :lower16:_ZN9WavetableD2Ev
.Ltmp1114:
	.loc	9 87 22                 @ /usr/bin/../lib/gcc/arm-linux-gnueabihf/6.3.0/../../../../include/c++/6.3.0/bits/stl_vector.h:87:22
	movw	r1, :lower16:gSineOscillator
.Ltmp1115:
	.loc	3 55 11 discriminator 1 @ /root/Bela/projects/Yinghao-final-2/render.cpp:55:11
	movt	r5, :upper16:_ZN9WavetableD2Ev
.Ltmp1116:
	.loc	9 87 22                 @ /usr/bin/../lib/gcc/arm-linux-gnueabihf/6.3.0/../../../../include/c++/6.3.0/bits/stl_vector.h:87:22
	movt	r1, :upper16:gSineOscillator
.Ltmp1117:
	.loc	3 55 11 discriminator 1 @ /root/Bela/projects/Yinghao-final-2/render.cpp:55:11
	mov	r0, r5
	mov	r2, r8
.Ltmp1118:
	.loc	9 87 22                 @ /usr/bin/../lib/gcc/arm-linux-gnueabihf/6.3.0/../../../../include/c++/6.3.0/bits/stl_vector.h:87:22
	str	r4, [r1]
	.loc	9 87 34 is_stmt 0       @ /usr/bin/../lib/gcc/arm-linux-gnueabihf/6.3.0/../../../../include/c++/6.3.0/bits/stl_vector.h:87:34
	str	r4, [r1, #4]
	.loc	9 87 47                 @ /usr/bin/../lib/gcc/arm-linux-gnueabihf/6.3.0/../../../../include/c++/6.3.0/bits/stl_vector.h:87:47
	str	r4, [r1, #8]
.Ltmp1119:
	.loc	3 55 11 is_stmt 1 discriminator 1 @ /root/Bela/projects/Yinghao-final-2/render.cpp:55:11
	bl	__cxa_atexit
.Ltmp1120:
	.loc	9 87 22                 @ /usr/bin/../lib/gcc/arm-linux-gnueabihf/6.3.0/../../../../include/c++/6.3.0/bits/stl_vector.h:87:22
	movw	r1, :lower16:sin2
.Ltmp1121:
	.loc	3 55 28 discriminator 1 @ /root/Bela/projects/Yinghao-final-2/render.cpp:55:28
	mov	r0, r5
.Ltmp1122:
	.loc	9 87 22                 @ /usr/bin/../lib/gcc/arm-linux-gnueabihf/6.3.0/../../../../include/c++/6.3.0/bits/stl_vector.h:87:22
	movt	r1, :upper16:sin2
.Ltmp1123:
	.loc	3 55 28 discriminator 1 @ /root/Bela/projects/Yinghao-final-2/render.cpp:55:28
	mov	r2, r8
.Ltmp1124:
	.loc	9 87 22                 @ /usr/bin/../lib/gcc/arm-linux-gnueabihf/6.3.0/../../../../include/c++/6.3.0/bits/stl_vector.h:87:22
	str	r4, [r1]
	.loc	9 87 34 is_stmt 0       @ /usr/bin/../lib/gcc/arm-linux-gnueabihf/6.3.0/../../../../include/c++/6.3.0/bits/stl_vector.h:87:34
	str	r4, [r1, #4]
	.loc	9 87 47                 @ /usr/bin/../lib/gcc/arm-linux-gnueabihf/6.3.0/../../../../include/c++/6.3.0/bits/stl_vector.h:87:47
	str	r4, [r1, #8]
.Ltmp1125:
	.loc	3 55 28 is_stmt 1 discriminator 1 @ /root/Bela/projects/Yinghao-final-2/render.cpp:55:28
	bl	__cxa_atexit
.Ltmp1126:
	.loc	9 87 22                 @ /usr/bin/../lib/gcc/arm-linux-gnueabihf/6.3.0/../../../../include/c++/6.3.0/bits/stl_vector.h:87:22
	movw	r1, :lower16:sin3
.Ltmp1127:
	.loc	3 55 34 discriminator 1 @ /root/Bela/projects/Yinghao-final-2/render.cpp:55:34
	mov	r0, r5
.Ltmp1128:
	.loc	9 87 22                 @ /usr/bin/../lib/gcc/arm-linux-gnueabihf/6.3.0/../../../../include/c++/6.3.0/bits/stl_vector.h:87:22
	movt	r1, :upper16:sin3
.Ltmp1129:
	.loc	3 55 34 discriminator 1 @ /root/Bela/projects/Yinghao-final-2/render.cpp:55:34
	mov	r2, r8
.Ltmp1130:
	.loc	9 87 22                 @ /usr/bin/../lib/gcc/arm-linux-gnueabihf/6.3.0/../../../../include/c++/6.3.0/bits/stl_vector.h:87:22
	str	r4, [r1]
	.loc	9 87 34 is_stmt 0       @ /usr/bin/../lib/gcc/arm-linux-gnueabihf/6.3.0/../../../../include/c++/6.3.0/bits/stl_vector.h:87:34
	str	r4, [r1, #4]
	.loc	9 87 47                 @ /usr/bin/../lib/gcc/arm-linux-gnueabihf/6.3.0/../../../../include/c++/6.3.0/bits/stl_vector.h:87:47
	str	r4, [r1, #8]
.Ltmp1131:
	.loc	3 55 34 is_stmt 1 discriminator 1 @ /root/Bela/projects/Yinghao-final-2/render.cpp:55:34
	bl	__cxa_atexit
.Ltmp1132:
	@DEBUG_VALUE: Wavetable:this <- %R1
	.loc	9 87 22                 @ /usr/bin/../lib/gcc/arm-linux-gnueabihf/6.3.0/../../../../include/c++/6.3.0/bits/stl_vector.h:87:22
	movw	r1, :lower16:sin4
.Ltmp1133:
	.loc	3 55 40 discriminator 1 @ /root/Bela/projects/Yinghao-final-2/render.cpp:55:40
	mov	r0, r5
.Ltmp1134:
	.loc	9 87 22                 @ /usr/bin/../lib/gcc/arm-linux-gnueabihf/6.3.0/../../../../include/c++/6.3.0/bits/stl_vector.h:87:22
	movt	r1, :upper16:sin4
.Ltmp1135:
	.loc	3 55 40 discriminator 1 @ /root/Bela/projects/Yinghao-final-2/render.cpp:55:40
	mov	r2, r8
.Ltmp1136:
	.loc	9 87 22                 @ /usr/bin/../lib/gcc/arm-linux-gnueabihf/6.3.0/../../../../include/c++/6.3.0/bits/stl_vector.h:87:22
	str	r4, [r1]
	.loc	9 87 34 is_stmt 0       @ /usr/bin/../lib/gcc/arm-linux-gnueabihf/6.3.0/../../../../include/c++/6.3.0/bits/stl_vector.h:87:34
	str	r4, [r1, #4]
	.loc	9 87 47                 @ /usr/bin/../lib/gcc/arm-linux-gnueabihf/6.3.0/../../../../include/c++/6.3.0/bits/stl_vector.h:87:47
	str	r4, [r1, #8]
.Ltmp1137:
	.loc	3 55 40 is_stmt 1 discriminator 1 @ /root/Bela/projects/Yinghao-final-2/render.cpp:55:40
	bl	__cxa_atexit
.Ltmp1138:
	@DEBUG_VALUE: vector:this <- %R1
	@DEBUG_VALUE: vector:this <- %R1
	@DEBUG_VALUE: vector:this <- %R1
	@DEBUG_VALUE: vector:this <- %R1
	@DEBUG_VALUE: vector:this <- %R1
	@DEBUG_VALUE: vector:this <- %R7
	@DEBUG_VALUE: vector:this <- %R1
	@DEBUG_VALUE: vector:this <- %R1
	@DEBUG_VALUE: vector:this <- %R1
	@DEBUG_VALUE: vector:this <- %R1
	@DEBUG_VALUE: vector:this <- %R1
	@DEBUG_VALUE: vector:this <- %R1
	@DEBUG_VALUE: vector:this <- %R1
	@DEBUG_VALUE: vector:this <- %R1
	@DEBUG_VALUE: vector:this <- %R7
	@DEBUG_VALUE: vector:this <- %R1
	@DEBUG_VALUE: vector:this <- %R5
	@DEBUG_VALUE: _S_copy:__s <- %R2
	@DEBUG_VALUE: Wavetable:this <- %R1
	@DEBUG_VALUE: Wavetable:this <- %R1
	@DEBUG_VALUE: Wavetable:this <- %R1
	sub	sp, r11, #24
	pop	{r4, r5, r6, r7, r8, r10, r11, pc}
.Ltmp1139:
.Lfunc_end7:
	.size	_GLOBAL__sub_I_render.ii, .Lfunc_end7-_GLOBAL__sub_I_render.ii
	.cfi_endproc
	.fnend

	.type	.L.str,%object          @ @.str
	.section	.rodata.str1.8,"aMS",%progbits,1
	.p2align	3
.L.str:
	.asciz	"slow-drum-loop.wav"
	.size	.L.str, 19

	.type	gPlayer,%object         @ @gPlayer
	.bss
	.globl	gPlayer
	.p2align	2
gPlayer:
	.zero	20
	.size	gPlayer, 20

	.type	gGui,%object            @ @gGui
	.globl	gGui
	.p2align	2
gGui:
	.zero	136
	.size	gGui, 136

	.type	gScope,%object          @ @gScope
	.globl	gScope
	.p2align	2
gScope:
	.zero	212
	.size	gScope, 212

	.type	gSineOscillator,%object @ @gSineOscillator
	.globl	gSineOscillator
	.p2align	2
gSineOscillator:
	.zero	28
	.size	gSineOscillator, 28

	.type	sin2,%object            @ @sin2
	.globl	sin2
	.p2align	2
sin2:
	.zero	28
	.size	sin2, 28

	.type	sin3,%object            @ @sin3
	.globl	sin3
	.p2align	2
sin3:
	.zero	28
	.size	sin3, 28

	.type	sin4,%object            @ @sin4
	.globl	sin4
	.p2align	2
sin4:
	.zero	28
	.size	sin4, 28

	.type	.L.str.29,%object       @ @.str.29
	.section	.rodata.str1.1,"aMS",%progbits,1
.L.str.29:
	.asciz	"Error loading audio file '%s'\n"
	.size	.L.str.29, 31

	.type	.L.str.30,%object       @ @.str.30
.L.str.30:
	.asciz	"gui"
	.size	.L.str.30, 4

	.type	.L.str.31,%object       @ @.str.31
	.section	.rodata.str1.8,"aMS",%progbits,1
	.p2align	3
.L.str.31:
	.asciz	"Delay Controller"
	.size	.L.str.31, 17

	.type	.L.str.32,%object       @ @.str.32
	.section	.rodata.str1.1,"aMS",%progbits,1
.L.str.32:
	.asciz	"Delay"
	.size	.L.str.32, 6

	.type	.L.str.34,%object       @ @.str.34
	.section	.rodata.str1.8,"aMS",%progbits,1
	.p2align	3
.L.str.34:
	.asciz	"LPF feedback b"
	.size	.L.str.34, 15

	.type	.L.str.35,%object       @ @.str.35
	.p2align	3
.L.str.35:
	.asciz	"comb filter freq Hz"
	.size	.L.str.35, 20

	.type	.L.str.36,%object       @ @.str.36
	.p2align	3
.L.str.36:
	.asciz	"Delay_2"
	.size	.L.str.36, 8

	.type	.L.str.37,%object       @ @.str.37
	.p2align	3
.L.str.37:
	.asciz	"comb filter freq_2 Hz"
	.size	.L.str.37, 22

	.type	.L.str.38,%object       @ @.str.38
	.p2align	3
.L.str.38:
	.asciz	"Delay_3"
	.size	.L.str.38, 8

	.type	.L.str.39,%object       @ @.str.39
	.p2align	3
.L.str.39:
	.asciz	"comb filter freq_3 Hz"
	.size	.L.str.39, 22

	.type	.L.str.40,%object       @ @.str.40
	.p2align	3
.L.str.40:
	.asciz	"Delay_4"
	.size	.L.str.40, 8

	.type	.L.str.41,%object       @ @.str.41
	.p2align	3
.L.str.41:
	.asciz	"comb filter freq_4 Hz"
	.size	.L.str.41, 22

	.type	.L.str.42,%object       @ @.str.42
	.p2align	3
.L.str.42:
	.asciz	"global feedback beta"
	.size	.L.str.42, 21

	.type	.L.str.43,%object       @ @.str.43
	.p2align	3
.L.str.43:
	.asciz	"output ratio c"
	.size	.L.str.43, 15

	.type	.L.str.44,%object       @ @.str.44
	.section	.rodata.str1.1,"aMS",%progbits,1
.L.str.44:
	.asciz	"Loaded the audio file '%s' with %d frames (%.1f seconds)\n"
	.size	.L.str.44, 58

	.type	_ZZ6renderE9playReveb,%object @ @_ZZ6renderE9playReveb
	.local	_ZZ6renderE9playReveb
	.comm	_ZZ6renderE9playReveb,1,1
	.type	.L.str.45,%object       @ @.str.45
.L.str.45:
	.asciz	"playReveb = %d\n"
	.size	.L.str.45, 16

	.type	.L.str.47,%object       @ @.str.47
.L.str.47:
	.asciz	"vector::_M_default_append"
	.size	.L.str.47, 26

	.section	.init_array,"aw",%init_array
	.p2align	2
	.long	_GLOBAL__sub_I_render.ii(target1)
	.type	.L_MergedGlobals,%object @ @_MergedGlobals
	.data
	.p2align	4
.L_MergedGlobals:
	.long	0                       @ 0x0
	.long	0                       @ 0x0
	.long	0                       @ 0x0
	.long	0                       @ 0x0
	.long	0                       @ 0x0
	.long	0                       @ 0x0
	.long	0                       @ 0x0
	.long	0                       @ 0x0
	.long	0                       @ 0x0
	.long	1                       @ 0x1
	.zero	12
	.zero	12
	.zero	12
	.zero	12
	.zero	12
	.zero	12
	.zero	12
	.size	.L_MergedGlobals, 124

	.type	.L_MergedGlobals.3,%object @ @_MergedGlobals.3
	.local	.L_MergedGlobals.3
	.comm	.L_MergedGlobals.3,120,16
	.type	.L_MergedGlobals.4,%object @ @_MergedGlobals.4
	.local	.L_MergedGlobals.4
	.comm	.L_MergedGlobals.4,124,16